ccopy_reg
_reconstructor
p0
(cpandas.core.frame
DataFrame
p1
c__builtin__
object
p2
Ntp3
Rp4
g0
(cpandas.core.internals
BlockManager
p5
g2
Ntp6
Rp7
((lp8
cpandas.core.index
_new_Index
p9
(cpandas.core.index
Index
p10
(dp11
S'data'
p12
cnumpy.core.multiarray
_reconstruct
p13
(cnumpy
ndarray
p14
(I0
tp15
S'b'
p16
tp17
Rp18
(I1
(I13
tp19
cnumpy
dtype
p20
(S'O8'
p21
I0
I1
tp22
Rp23
(I3
S'|'
p24
NNNI-1
I-1
I63
tp25
bI00
(lp26
S'body'
p27
aS'score'
p28
aS'overallPol'
p29
aS'stdPol'
p30
aS'overallSub'
p31
aS'stdSub'
p32
aS'polRange'
p33
aS'subRange'
p34
aS'wordCount'
p35
aS'bigWords'
p36
aS'sentLen'
p37
aS'targetPol'
p38
aS'targetSub'
p39
atp40
bsS'name'
p41
Nstp42
Rp43
ag9
(cpandas.core.index
Int64Index
p44
(dp45
g12
g13
(g14
(I0
tp46
g16
tp47
Rp48
(I1
(I181
tp49
g20
(S'i8'
p50
I0
I1
tp51
Rp52
(I3
S'<'
p53
NNNI-1
I-1
I0
tp54
bI00
S'\x00\x00\x00\x00\x00\x00\x00\x00\x01\x00\x00\x00\x00\x00\x00\x00\x02\x00\x00\x00\x00\x00\x00\x00\x03\x00\x00\x00\x00\x00\x00\x00\x04\x00\x00\x00\x00\x00\x00\x00\x05\x00\x00\x00\x00\x00\x00\x00\x06\x00\x00\x00\x00\x00\x00\x00\x07\x00\x00\x00\x00\x00\x00\x00\x08\x00\x00\x00\x00\x00\x00\x00\t\x00\x00\x00\x00\x00\x00\x00\n\x00\x00\x00\x00\x00\x00\x00\x0b\x00\x00\x00\x00\x00\x00\x00\x0c\x00\x00\x00\x00\x00\x00\x00\r\x00\x00\x00\x00\x00\x00\x00\x0e\x00\x00\x00\x00\x00\x00\x00\x0f\x00\x00\x00\x00\x00\x00\x00\x10\x00\x00\x00\x00\x00\x00\x00\x11\x00\x00\x00\x00\x00\x00\x00\x12\x00\x00\x00\x00\x00\x00\x00\x13\x00\x00\x00\x00\x00\x00\x00\x14\x00\x00\x00\x00\x00\x00\x00\x15\x00\x00\x00\x00\x00\x00\x00\x16\x00\x00\x00\x00\x00\x00\x00\x17\x00\x00\x00\x00\x00\x00\x00\x18\x00\x00\x00\x00\x00\x00\x00\x19\x00\x00\x00\x00\x00\x00\x00\x1a\x00\x00\x00\x00\x00\x00\x00\x1b\x00\x00\x00\x00\x00\x00\x00\x1c\x00\x00\x00\x00\x00\x00\x00\x1d\x00\x00\x00\x00\x00\x00\x00\x1e\x00\x00\x00\x00\x00\x00\x00\x1f\x00\x00\x00\x00\x00\x00\x00 \x00\x00\x00\x00\x00\x00\x00!\x00\x00\x00\x00\x00\x00\x00"\x00\x00\x00\x00\x00\x00\x00#\x00\x00\x00\x00\x00\x00\x00$\x00\x00\x00\x00\x00\x00\x00%\x00\x00\x00\x00\x00\x00\x00&\x00\x00\x00\x00\x00\x00\x00\'\x00\x00\x00\x00\x00\x00\x00(\x00\x00\x00\x00\x00\x00\x00)\x00\x00\x00\x00\x00\x00\x00*\x00\x00\x00\x00\x00\x00\x00+\x00\x00\x00\x00\x00\x00\x00,\x00\x00\x00\x00\x00\x00\x00-\x00\x00\x00\x00\x00\x00\x00.\x00\x00\x00\x00\x00\x00\x00/\x00\x00\x00\x00\x00\x00\x000\x00\x00\x00\x00\x00\x00\x001\x00\x00\x00\x00\x00\x00\x002\x00\x00\x00\x00\x00\x00\x003\x00\x00\x00\x00\x00\x00\x004\x00\x00\x00\x00\x00\x00\x005\x00\x00\x00\x00\x00\x00\x006\x00\x00\x00\x00\x00\x00\x007\x00\x00\x00\x00\x00\x00\x008\x00\x00\x00\x00\x00\x00\x009\x00\x00\x00\x00\x00\x00\x00:\x00\x00\x00\x00\x00\x00\x00;\x00\x00\x00\x00\x00\x00\x00<\x00\x00\x00\x00\x00\x00\x00=\x00\x00\x00\x00\x00\x00\x00>\x00\x00\x00\x00\x00\x00\x00?\x00\x00\x00\x00\x00\x00\x00@\x00\x00\x00\x00\x00\x00\x00A\x00\x00\x00\x00\x00\x00\x00B\x00\x00\x00\x00\x00\x00\x00C\x00\x00\x00\x00\x00\x00\x00D\x00\x00\x00\x00\x00\x00\x00E\x00\x00\x00\x00\x00\x00\x00F\x00\x00\x00\x00\x00\x00\x00G\x00\x00\x00\x00\x00\x00\x00H\x00\x00\x00\x00\x00\x00\x00I\x00\x00\x00\x00\x00\x00\x00J\x00\x00\x00\x00\x00\x00\x00K\x00\x00\x00\x00\x00\x00\x00L\x00\x00\x00\x00\x00\x00\x00M\x00\x00\x00\x00\x00\x00\x00N\x00\x00\x00\x00\x00\x00\x00O\x00\x00\x00\x00\x00\x00\x00P\x00\x00\x00\x00\x00\x00\x00Q\x00\x00\x00\x00\x00\x00\x00R\x00\x00\x00\x00\x00\x00\x00S\x00\x00\x00\x00\x00\x00\x00T\x00\x00\x00\x00\x00\x00\x00U\x00\x00\x00\x00\x00\x00\x00V\x00\x00\x00\x00\x00\x00\x00W\x00\x00\x00\x00\x00\x00\x00X\x00\x00\x00\x00\x00\x00\x00Y\x00\x00\x00\x00\x00\x00\x00Z\x00\x00\x00\x00\x00\x00\x00[\x00\x00\x00\x00\x00\x00\x00\\\x00\x00\x00\x00\x00\x00\x00]\x00\x00\x00\x00\x00\x00\x00^\x00\x00\x00\x00\x00\x00\x00_\x00\x00\x00\x00\x00\x00\x00`\x00\x00\x00\x00\x00\x00\x00a\x00\x00\x00\x00\x00\x00\x00b\x00\x00\x00\x00\x00\x00\x00c\x00\x00\x00\x00\x00\x00\x00d\x00\x00\x00\x00\x00\x00\x00e\x00\x00\x00\x00\x00\x00\x00f\x00\x00\x00\x00\x00\x00\x00g\x00\x00\x00\x00\x00\x00\x00h\x00\x00\x00\x00\x00\x00\x00i\x00\x00\x00\x00\x00\x00\x00j\x00\x00\x00\x00\x00\x00\x00k\x00\x00\x00\x00\x00\x00\x00l\x00\x00\x00\x00\x00\x00\x00m\x00\x00\x00\x00\x00\x00\x00n\x00\x00\x00\x00\x00\x00\x00o\x00\x00\x00\x00\x00\x00\x00p\x00\x00\x00\x00\x00\x00\x00q\x00\x00\x00\x00\x00\x00\x00r\x00\x00\x00\x00\x00\x00\x00s\x00\x00\x00\x00\x00\x00\x00t\x00\x00\x00\x00\x00\x00\x00u\x00\x00\x00\x00\x00\x00\x00v\x00\x00\x00\x00\x00\x00\x00w\x00\x00\x00\x00\x00\x00\x00x\x00\x00\x00\x00\x00\x00\x00y\x00\x00\x00\x00\x00\x00\x00z\x00\x00\x00\x00\x00\x00\x00{\x00\x00\x00\x00\x00\x00\x00|\x00\x00\x00\x00\x00\x00\x00}\x00\x00\x00\x00\x00\x00\x00~\x00\x00\x00\x00\x00\x00\x00\x7f\x00\x00\x00\x00\x00\x00\x00\x80\x00\x00\x00\x00\x00\x00\x00\x81\x00\x00\x00\x00\x00\x00\x00\x82\x00\x00\x00\x00\x00\x00\x00\x83\x00\x00\x00\x00\x00\x00\x00\x84\x00\x00\x00\x00\x00\x00\x00\x85\x00\x00\x00\x00\x00\x00\x00\x86\x00\x00\x00\x00\x00\x00\x00\x87\x00\x00\x00\x00\x00\x00\x00\x88\x00\x00\x00\x00\x00\x00\x00\x89\x00\x00\x00\x00\x00\x00\x00\x8a\x00\x00\x00\x00\x00\x00\x00\x8b\x00\x00\x00\x00\x00\x00\x00\x8c\x00\x00\x00\x00\x00\x00\x00\x8d\x00\x00\x00\x00\x00\x00\x00\x8e\x00\x00\x00\x00\x00\x00\x00\x8f\x00\x00\x00\x00\x00\x00\x00\x90\x00\x00\x00\x00\x00\x00\x00\x91\x00\x00\x00\x00\x00\x00\x00\x92\x00\x00\x00\x00\x00\x00\x00\x93\x00\x00\x00\x00\x00\x00\x00\x94\x00\x00\x00\x00\x00\x00\x00\x95\x00\x00\x00\x00\x00\x00\x00\x96\x00\x00\x00\x00\x00\x00\x00\x97\x00\x00\x00\x00\x00\x00\x00\x98\x00\x00\x00\x00\x00\x00\x00\x99\x00\x00\x00\x00\x00\x00\x00\x9a\x00\x00\x00\x00\x00\x00\x00\x9b\x00\x00\x00\x00\x00\x00\x00\x9c\x00\x00\x00\x00\x00\x00\x00\x9d\x00\x00\x00\x00\x00\x00\x00\x9e\x00\x00\x00\x00\x00\x00\x00\x9f\x00\x00\x00\x00\x00\x00\x00\xa0\x00\x00\x00\x00\x00\x00\x00\xa1\x00\x00\x00\x00\x00\x00\x00\xa2\x00\x00\x00\x00\x00\x00\x00\xa3\x00\x00\x00\x00\x00\x00\x00\xa4\x00\x00\x00\x00\x00\x00\x00\xa5\x00\x00\x00\x00\x00\x00\x00\xa6\x00\x00\x00\x00\x00\x00\x00\xa7\x00\x00\x00\x00\x00\x00\x00\xa8\x00\x00\x00\x00\x00\x00\x00\xa9\x00\x00\x00\x00\x00\x00\x00\xaa\x00\x00\x00\x00\x00\x00\x00\xab\x00\x00\x00\x00\x00\x00\x00\xac\x00\x00\x00\x00\x00\x00\x00\xad\x00\x00\x00\x00\x00\x00\x00\xae\x00\x00\x00\x00\x00\x00\x00\xaf\x00\x00\x00\x00\x00\x00\x00\xb0\x00\x00\x00\x00\x00\x00\x00\xb1\x00\x00\x00\x00\x00\x00\x00\xb2\x00\x00\x00\x00\x00\x00\x00\xb3\x00\x00\x00\x00\x00\x00\x00\xb4\x00\x00\x00\x00\x00\x00\x00'
p55
tp56
bsg41
Nstp57
Rp58
a(lp59
g13
(g14
(I0
tp60
g16
tp61
Rp62
(I1
(I13
I181
tp63
g23
I00
(lp64
S'But if we did that it would make Apple look less bad, and then how are we supposed to get upvoted to the frontpage?'
p65
aS'There are plenty of legal streaming services.\n\nSpotify, Rdio, Deezer, Qobuz, Google Play Music, Tidal, Pandora, Napster, Xbox Music Plus whatever Apple is going to call it soon (Itunes Beats or something).'
p66
aS'I kind of really like this guy. Rep. Ted Lieu actually understands technology, and explained it well enough that the common folk might grasp the problem, maybe. \n\nBut, he is 100% correct. The private sector is responding to the public not liking all this surveillance and government overreach. There is money to be made in that area, and Google and Apple are not dumb. '
p67
aS"Apple didn't invent the mp3 player, or the smart phone, or the tablet. They fucking marketed them to the masses. \n\nThat's the difference. "
p68
aS'Android/Windows guy... Your statement completely undermines the concept of "user experience." Apple advanced UX by decades.'
p69
aS"Marketting was only half the battle.  At launch, the iPhone was a very nice device with a gorgeous UI, but functionally it was extremely limited by what it could do compared to Blackberry and Windows Mobile 6.x devices at the time.  No file manager or simple file transfer between devices, you needed a PC/Mac to set it up, no extra applications or functionality you could add.  But that UI and hype made everyone want one and the market was changed for the better because of it.\n\nThe iPod literally ripped off Creative's UI, and they were more limited in what they could do.  What Apple did to change the game was vertically integrate the entire system of device and music.  Most importantly, they got the music labels on board and made it extremely easy to purchase legal music.  Convenience trumps all for consumers."
p70
aS"Apple spends almost nothing on marketing compared to other phone manufacturers. The reason the iPhone changed things is because it's what people wanted. The average consumer doesn't know what a file system is, and doesnt want to be using a phone sized version of Windows Explorer. "
p71
aS"Apple is not off the hook! Go to fail and disabled domain verification? Let's not forget the large portion of Apple apps that have unknowingly had their encryption disabled?"
p72
aS"If you honestly think Apple isn't tracking your every download, tap and message, then I have some bad news for you. \n\nAnd with the new iPhones, they get your fingerprints too. But don't worry, they don't save that information."
p73
aS"This is why Google made Android. 95% of their revenue is from ads, and they were worried about getting shut out. Apple made the horrible (getting better) Maps app for 2 reasons, Google wanted to use their monopoly map position to substantially raise the cost of including it, and they wanted access to customer data. They now get a lot of data, but the user has to download an app (and we do because it's still the best map app). "
p74
aS"you're crazy if you think Apple isn't collecting information from your phone."
p75
aS"If I'm not mistaken, Apple asks you if you wanna enable locations services for that app, and if you press no, it can't use them. \n\nThough I'm not 100% on that. "
p76
aS"* Chrome: It's Google. It uses all of Google's software by default and integrates well with them, driving up AdSense views.\n\n* Firefox: Nonprofit. They made a deal with Yahoo to use them as the default search engine, which gave them a lot of cash, but they also take donations.\n\n* Internet Explorer: Bing is the default search engine and MSN is the default homepage, both of which give Microsoft ad money with each page load.\n\n* Opera: Opera has partnerships with search engines to share ad revenue with them. OEMs can also license Opera to include in their devices. (I'll admit, I had to look this one up.)\n\n* Safari: ~~I don't think Safari actually makes Apple any money. But OSX and iOS need a web browser, so Apple has to make one.~~ Google gives Apple money for making them the default search engine."
p77
aS'Well for IE and Safari, Microsoft and Apple has no choice. How else are you going to download Chrome or Firefox without the default browser? /s'
p78
aS"&gt;  like other companies and projects in the space haven't been doing the same thing for years\n\nGenerally, when Apple comes out with something that's said to revolutionize something it does because other companies *haven't* been doing the same thing for years. They have perhaps done something similar or superficially the same, but the devil is in the detail.\n\nNot saying it will be the case here, I don't know of course."
p79
aS"True, but I think what Apple wants to do is kill Spotify and co so they can get young people to listen to Apple's new version of the radio."
p80
aS'Apple should just buy Spotify really. Apple launching a new service and hindering Spotify with these kind of actions is just going to hurt both of them. '
p81
aS"Fuck Apple.  Hate this monopoly shit.  \n\nEarn your place in the market, don't bring others down to bring yourselves up.  Apple is like that dumb jock in high school that can't handle when people do better than him, so he has to belittle it.\n\nFuck Apple."
p82
aS"The point of this article isn't that they are doing this. It's that the DOJ and EU are investigating them for antitrust violations over it. \n\nApple is now firmly in the realm of 90s microsoft. Making stupid choices and threats to get their way. "
p83
aS'Apple conspired to raise the price of ebooks to consumers.'
p84
aS'They got slapped down for making deals with publishers to not price ebooks lower on Kindle than on the Apple ebooks store thing.'
p85
aS'This is why Tidal was launched, yet many people on reddit, specifically users from /r/music and /r/technology,  all but pray for its demise. \n\nApple has power of influence in taking away exclusive, curated content from artists on Tidal because the artists have an interest in it staying on the Tidal platform--one of them being that they receive a much larger cut from each song played compared to any other streaming service. '
p86
aS"Depends on how you define competitive.\n\nAmazon killed the independent writers with their reach and pretty much said that if you wanted to sell through the worlds largest bookstore, you needed to sell for next to nothing, and you needed to still let Amazon take something like a 70% cut.  And they could change the price at any time -- and only give you the cut based on the new discounted price. \n\nAs a musician, I personally don't care if Walmart sold a CD of mine that was a MSRP of $16.99 for $7.99.  Why?  Because I still got paid based on the MSRP and not what the selling price.  HOWEVER, with these new streaming services?  We get almost nothing.  The laws were changed several years ago so that music bloggers could post songs and not be priced out of the game -- and somehow the big companies found a way (just like we said would happen), and they found a way to put our songs out there a million times a day and give almost nothing for them.  \n\nIn Apple's eBook case -- their ONLY requirement was that publishing houses could set their prices.  I.e., the MSRP.  if someone like Amazon wanted to buy the book in bulk and sell it below cost, technically they could.  However, the authors / publishers would get paid based on the MSRP.  This was very convoluted in the trial and in reporting, but nothing ever stopped Amazon from selling below cost.  Nothing.  However, Apple gave the publishers a way to fight back against the worlds largest book store (the one that owns like 70% of the sales of published written books worldwide and 90% of the electronic market)...Amazon used its monopoly to steamroll indies and then even treated the big publishers as if they were the same.  \n\nApple gave them the ability to take back some of the control and fight back against the monopoly.  \n\nIn the music sales world?  Apple is the gorilla.  However, as an artist, they were always the most fair.  Even back in the day with CD Baby and its artist-centric model, they acted as a label would and found ways of keeping as much as they could.  Ironically, Apple was the most fair to content creators.  \n\nAre they perfect?  Fuck no.  Hell, if I were still in the game, I'd have been pushing for Tidal because it is even more artist-centric than anyone else.  \n\nBut back to your two sentence statement that I seem to have blown up...it is anti-competitive only depending on what audience you are looking at.  Amazon is anti-competitive to content creators.  Apple is anti-competitive to others.  All companies are going to be anti-competitive in one way or another...you just have to choose who you are aligning yourself with.  Being that I'm a content creator (writer, musician)...I like Apple.  As a consumer?  I still buy from Amazon!\n\nEdit: Ok...I'm out.  So much misinformation that was gleemed from Amazon's talking points.  I personally don't care at this point.  "
p87
aS'This is the best tl;dr I could make, [original](http://www.theverge.com/2015/5/4/8540935/apple-labels-spotify-streaming) reduced by 70%. (I\'m a bot)\n*****\n&gt; The Verge has learned that Apple has been pushing major music labels to force streaming services like Spotify to abandon their free tiers, which will dramatically reduce the competition for Apple&amp;#039;s upcoming offering.\n\n&gt; Apple has been using its considerable power in the music industry to stop the music labels from renewing Spotify&amp;#039;s license to stream music through its free tier.\n\n&gt; Getting the music labels to kill the freemium tiers from Spotify and others could put Apple in prime position to grab a large swath of new users when it launches its own streaming service, which is widely expected to feature a considerable amount of exclusive content.\n\n\n*****\n[**Extended Summary**](http://np.reddit.com/r/autotldr/comments/34tqp9/apple_pushing_music_labels_to_kill_free_spotify/) | [FAQ](http://np.reddit.com/r/autotldr/comments/31b9fm/faq_autotldr_bot/ "Version 1.5, ~14873 tl;drs so far.") | [Theory](http://np.reddit.com/r/autotldr/comments/31bfht/theory_autotldr_concept/) | [Feedback](http://np.reddit.com/message/compose?to=%23autotldr "PMs and comment replies are read by the bot admin, constructive feedback is welcome.") | *Top* *five* *keywords*: **Apple**^#1 **music**^#2 **service**^#3 **label**^#4 **Spotify**^#5\n\nPost found in [/r/technology](/r/technology/comments/34tddz/apple_pushing_music_labels_to_kill_free_spotify/), [/r/apple](/r/apple/comments/34teb0/apple_pushing_music_labels_to_kill_free_spotify/), [/r/musicindustry](/r/musicindustry/comments/34ten4/apple_reportedly_pushing_music_labels_to_kill/), [/r/Music](/r/Music/comments/34tea0/apple_pushing_music_labels_to_kill_free_spotify/), [/r/Techfeed](/r/Techfeed/comments/34tdzo/apple_pushing_music_labels_to_kill_free_spotify/) and [/r/realtech](/r/realtech/comments/34tdmc/apple_pushing_music_labels_to_kill_free_spotify/).'
p88
aS"Why not? Just curious. \n\nApple has agreements with just about every label already, so they could really expand Spotify's library. What are the downsides? They're obviously not going to make it iOS/OS X only--that'd kill off a large part of the user base. "
p89
aS'Apple is turning into a bag of dicks'
p90
aS'Spotify blows anything Apple has out of the water, and I hope Spotify prevails in this.'
p91
aS"Apple doesn't realize this...they think since it's them behind the service people would rather use it than pirate.."
p92
aS'There is definetly some huge click baiting going on here. ("From The Verge? You don\'t say!")\n\nWhen you look at the linked articles it\'s a different story. \n\nIt should read "Publishers want to stop offering free music trough streaming services. Apple agrees and affirms their service is payed only".\n\nThat\'s an entirely different story from "Apple is pushing music lables to kill free spotify streaming". The publishers (and a lot of the artists) are leading the conversation here. Not Apple.'
p93
aS"It's almost as if it was a symptom of being too big for your own good.\n\nMicrosoft had to eat a big piece of humble pie between their former glory and where they are today, but I think they are a better company for it.\n\nHere's to hoping Apple goes in a similar direction."
p94
aS"Representative of /r/pcmasterrace here. Idiots should buy a far better, cheaper laptop from MSI, ASUS, or even RAZR. Starbucks regulars might beg to differ, but Apple aren't the only, nor the best makers of laptops."
p95
aS'Apple is no saint, and while I enjoy their products, I am no fanboy...but ripping off others ideas? They may not have invented *everything* that goes into their products, but they have been at the forefront (often leading the charge) of nearly every major tech trend of the past 15 years.'
p96
aS'Not just R&amp;D. Marketing, shipping, customer service, warrenty repairs, retail, operational costs,... And of course profit. \n\nAlso, and this shouldn\'t come as a suprise, online Apple product cost breakdowns are [widely innacuate](http://bgr.com/2015/04/28/apple-watch-profits-expectations-lower/). Now you might say "of course the guy that\'s selling the thing is saying otherwise". But keep in mind these comments were made during an earnings conference call where misleading the stock holders is a damn stupid thing to do. '
p97
aS'Apple is not a really high tech company, they never spend money on R&amp;D. They are big with marketing. This is the reason their patent number is so pathetic even until recently when they start upping their R&amp;D money.'
p98
aS"I think they're really good at taking emerging technologies and apply them in such a way that they become mainstream. The research on multi-touch, taptic feedback, the friggin computer mouse was all started externally, but Apple took those things and built products in which those things truly shine. It's not just about marketing and 'visual' design, it's about design in it's broadest sense."
p99
aS'Apple has been doing some shady business for awhile now. They were [price fixing](http://iphone.appleinsider.com/articles/14/07/16/apple-settles-ebook-price-fixing-complaint-with-states-consumers-could-pay-450m) ebooks with publishers and screwing consumers out of lower prices. '
p100
aS"I know Apple and the labels wont read this but they should.\n\nI will absolutely 100% quit paying for Spotify, I will not pay for Beats, and I'll go back to pirating things (super easy, relatively guilt-free!) and the entire music industry can go fuck itself if they want to do this exclusive nonsense. \n\nIt might take a lot of effort to trickle down to the artists I like on a regular basis, but putting it back out of reach just means I won't bother paying anything anymore.  Period.    I'm not going to cave in to Apple bullying anyone around.  The labels shouldn't either.   It's in their best interest to be on every single service at the same time forever with as much stuff as they possibly can provide at all times.   "
p101
aS"I have a Moto 360 it's $170, give me a list of things I can't do that is worth paying an extra $130 for. And that's for the cheap Apple watch. The M360 is SS with a leather band, a comparable Apple Watch is then $500, not $300. So, give me a list of things I can't do that justifies $330."
p102
aS'[Maybe.](http://www.bloomberg.com/bw/articles/2014-05-21/why-spotify-and-the-streaming-music-industry-cant-make-money)\n\n&gt; Scale is a magic word for so many cloud-based companies and services, but Beats and Spotify operate differently. Their margins dont improve as they get larger. If Spotify bought the rights to songs for a flat rate, then every subscriber it adds would mean free money for the company. But that isnt what it does. Instead, **it spends a fixed proportion of its total revenue on royalties. So if Spotify doubles its subscriber base, it doubles the amount of money it pays out.**\n\n&gt; According to a report published by Generator Research last November, the current business model for streaming music is inherently unprofitable. Andrew Sheehy, the main author of the report, concluded: Our analysis is that no current music subscription serviceincluding marquee brands like Pandora, Spotify, and Rhapsodycan ever be profitable, even if they execute perfectly.\n\n&gt; The company does say **its contracts are structured so about 70 percent of its revenue goes to royalties.**\n\nLicensing is killing their profitability AND artist profits. The big record companies get their money without doing jack shit. Apple is probably trying to use their market power to get lower royalty prices.\n\n&gt; Apples interest in Beats is an acknowledgment of the changing times, says Rich Karpinski, a senior analyst at the Yankee Group. Everyone is waiting for Apple to make its move, he says. In some ways this validates the area. Apple declined to comment. The acquisition could tilt the balance of power in several ways. Apple could use its market power to force labels to accept lower royalty rates or entice its customers to subscribe to Beats by pre-installing the app on every device, dropping the price, and promoting it heavily through the App Store.'
p103
aS"Apple has (or perhaps had, not really sure) some straight up god-tier marketing people.  Their public image really is in all likelihood the single most important factor in their success.  All the extra money that goes into an apple phone/computer/etc. is, in my opinion, largely  resultant of their success in gradually coaxing consumers into believing that their products are inherently more high-class or otherwise valuable than alternatives.\n\nIt actually reminds me a lot of how incredibly expensive diamonds are despite the fact that they really aren't that valuable at all (we can literally create near-perfect diamonds synthetically at this point).  When people are told repeatedly that some given product is nicer/more prestigious they'll begin to value it more regardless of whether or not it provides any tangible benefits or utility."
p104
aS'Guys think about it a little bit.\n\nMusic labels and artists already hate the Spotify free service.  They get almost no money from it.  [As Radiohead member Thom Yorke described Spotify](http://www.businessinsider.com/thom-yorke-explains-why-he-hates-spotify-2013-10): \n&gt;[he described] the company as "the last desperate fart of a dying corpse"...\n\nApple has always been on the side of artists when it comes to products and services, and has always believed that art should be paid for.  There is no free lunch, and if you want music to exist, you HAVE to support it.  \n\nI think Apple is trying to move the entire industry in that direction, and I think music labels and artists agree with this idea, which is the only reason Apple has any leverage at all.\n\nI wouldn\'t say they\'re targeting Spotify, (as the article does say services *like* Spotify "force streaming services like Spotify to abandon their free tiers"), I would say they\'re targeting any free service that doesn\'t pay the artists some minimum amount.\n\nTLDR; Apple is trying to get the major labels to agree to minimum price-per-play across the board, because services like Spotify are bad for emerging artists who can\'t afford the fractions of a cent per play ($0.006 to $0.0084 per stream).'
p105
aS"The issue here is that Spotify has a really terrible payout and is not enough to support emerging artists.  It's why bands like Radiohead pulled their library from Spotify.  The payout is $0.006 to $0.0084 per stream.\n\nApple isn't attacking JUST Spotify, they are trying to set some reasonable minimum payout per stream across the industry (at the request of artists), and they are willing to pay for it.\n\nWhen you use Spotify, you are not supporting an artist, you are supporting Spotify.  An artist makes no money from Spotify, and if you want an artist to keep making music, you HAVE to support it.\n\nYou are not supporting them by using Spotify, you are supporting Spotify."
p106
aS'&gt; A high tech company is involved in "advanced technological development, especially in electronics." By definition, Apple is a high tech company. \n\n. me plugging in bunch of quantum computer chip together does not make me a "high tech quantum mechanist expert".  Just like your mom putting together ikea furniture won\'t make her a master carpenter.\n\nWhat apple is doing is a dime a dozen, half of china is designing smartphone, better, faster, higher spec, CHEAPER.  And surely enough, apple is eaten alive globally.  \n\n&gt;Any company that produces laptops and phones is a high-tech company, \n\nwhat? they are just low cost electronic assembler. Any peasant outfit in china will do it for you on the cheap in bulk price.\n\nAsus and mediatek are more advanced companies than apple.'
p107
aS"I'd pay $20 for my Spotify if I knew $10 of it was used to somehow fuck Apple."
p108
aS"Jeez, Apple are just a bunch of greedy cunts. I always wondered how they get away with their shit. Been going on for years now. \n\nWasn't Microsoft fined shit loads of money for making IE the default browser, ok completely different, but Apple just trying to crush any competition unfairly. "
p109
aS"SSDs were unproven for a while. I was an early adopter but you can imagine why new technology around *data storage* is an area to be a later comer to. It's one thing to have faulty antennas, it's entirely another thing to be losing grandma's photo collection because her SSD failed. USB3? They were putting out better competing tech. They screwed the licensing up by trying to make it a profit center. That was really dumb. And 99% of their consumers don't care about discrete graphics.\n\nYes, the iPhone was simply an iteration. My god. I would love to see what you consider accomplishments in your own life. Everyone keeps saying these were consensus and long held ideas. So why did nobody do them? Why does Apple own the market? It's not because of marketing. I had the first iPhone and I bought it because it was better than anything else out there by a huge margin."
p110
aS'"Apple declined to comment"\n\nDoes Apple EVER comment?'
p111
aS'Apple has become worse than Microsoft.  '
p112
aS'Apple is going full fucking retard with this one.'
p113
aS"Disagree. In my experience, Macs have a sweet spot that's pretty consistent whereas windows pcs tend to have a shorter sweet spot that can vary significantly based on who you're buying from, what model, and when. That's not at all to say that there aren't issues, just that they tend to show up later and are often fairly common, impossible to fix, and pretty blatantly ignored by apple. I've sent back HPs that crapped out on me, and they tended to know what the issue was for the product line but every problem I've ever encountered on a mac (or had a friend experience) has been typical enough to find a ton of hits on google, no official response, and every bit as annoying as windows problems. Add on that Apple makes it significantly harder to do any fixes yourself (hardware or software) and I've had a lot more frustration from their products.\r\rI'd also add that they're not really easier. They do the same things differently, and my parents are just as clueless about how to use their iPhones as they were on android, but due to marketing would never go back to android because it's too difficult."
p114
aS'Apple is always been like old Microsoft.'
p115
aS"What they're trying to do is make sure everyone pays something for music.  They're negotiating with record labels to set minimum payouts for artists.\n\nRight now, Spotify is making money for labels on the backs of artists.  It isn't fair, and it isn't right.  What Apple is trying to do, and is willing to pay for it, is set minimum payouts so people aren't taking advantage of artists."
p116
aS"That shouldn't be the takeaway....of course they are going to set it up to be profitable.  That's what they do.  If it isn't profitable, it isn't really valuable to people, meaning its a shit product.\n\nIf someone is willing to pay money for something...money they spent time earning, that means they really value that something.\n\nSo Apple says, we will give you an amazing service, but you will have to pay for it, but when you do, you should know that a fair chunk of this price will go to the artist who created it for you."
p117
aS"That thing was nothing more than a laptop with a keyboard hacked off and small updates to the OS to treat touches on the screen as mouse clicks. The OS, innards, software, etc were basically the same as a laptop, which is why it was incredibly heavy and basically useless as a tablet because it couldn't hold a charge for shit.\n\nWith the iPad Apple designed their own CPU, they designed a new OS  (though they did basically fork off the Darwin core, but the UX is a complete redesign none-the-less) and they had to rebuild apps to support the new form factor.\n\nPeople act like Microsoft came up with the idea of a  tablet when these things have existed in sci-fi long before Microsoft cobbled up a lame attempt. \n\nI know the hate for Apple is strong, but let's not be disingenuous here."
p118
aS"Well I mean the takeaway shouldn't be that I'm implying Apple is doing this without being sensitive to their own position.\n\nThe point is, right now Spotify is a win-win for Spotify and Music labels.\n\nApple is trying to make it a win-win-win for Apple, music labels, AND artists."
p119
aS'All he said was how he feels, other than saying "it\'s still the same company", which is about as accurate as saying Apple is "still the same company" as it was back when all it offered was a Mac. \n\n  "Nothing he said was wrong" applies to me saying "I think GMOs lead to cancer, and more cancers have been diagnosed since the introduction of GMO food".\n\nThat is all factually correct (except I\'d be lying about how I feel, but that\'s not really the point).'
p120
aS'In 2 years time, Spotify will be remembered as ripping off Apple music though. Apple does have great marketing.'
p121
aS'Apple are willing to pay Universal the same amount YouTube currently pays them, just to take Universal Music off of YouTube.'
p122
aS'MS got in trouble for installing its own browser as the default on Windows, though users could always change it.\n\nApple gets away with making their own browser, email client, SMS client, video call client, calendar, navigation, contacts, camera, photo gallery, etc, etc the default and users *cannot* change any of them to default to something else.  That\'s just the beginning though, since they also control all the hardware *and* the only app store.  They also control the largest source of content, and make it difficult or impossible to retain access to purchased content without continuing to buy their hardware.  No other company has ever had it so good.\n\nHow? By being by far the most profitable company in the business, but technically not having a monopoly if you count users.  \n\nFor instance, this analysis showing that Apple\'s "not monopoly" is taking 93% of all profits from the mobile space:\nhttp://m.barrons.com/articles/BL-TB-46610\n\n\nWhich is worse for consumers?  Which is more anticompetitive?  Seems clear to me that Apple is doing more harm than MS ever dreamed of during its most powerful days.'
p123
aS"I'll take a safe better and say that businessinsider believes everything Apple says they invented/innovated Apple actually invented/innovated."
p124
aS"I'd say MS also does what they want, but they don't think it through as carefully in advance. Apple wants to appear perfect from the start to finish, MS won't hesitate to release a bunch of revisions. "
p125
aS"The difference between an Android update and any other mobile OS update is that with Android it's all public, while the other OEMs keep their updates secret until they roll them out. It's not so much that Android takes longer to get updated, but that we can see the gap between when it's ready and when it actually happens, which is especially apparent with Nexus devices.\n\nAndroid on average has seen an update every 6-9 months, and it can take between a few weeks and 6 months for the most recent update to get pushed out to our phones (depending on what phone we have and how big the update is).\n\niOS has a yearly update that happens at the same time every year. So a few months before the update is ready, Apple stops working on it, locks down the code and starts the process of getting the update ready to roll out to all the devices. This process happens in private, so we can't see the months they spend going from code to an update ready to be pushed out. (Windows follows largely the same model, but they have a shorter, bumpier, history of updates).\n\nIf we look at how many updates have actually been pushed out to phones Android is way ahead in both number and speed. The difference is that we can see clearly the lag between when the code is ready and when the update is ready. We can also see the difference between how long it takes to get an update ready for different phones. With iOS, that all happens behind closed doors, so we just see the update pop up one day.\n\nThe Apple model makes us feel better, but the Android model gets more updates out faster. Given the number of articles that get written about Android updates, it seems that generally people, even people who are 'tech savvy, would prefer to feel better about their updates than to have more updates faster."
p126
aS'The current gen Apple TV was released almost 2.5 years ago.  And that was just a revision of the one released over 3 years ago.\n\nThe Apple TV product cycle is not the same as other Apple gadgets.'
p127
aS'This is a fascinating issue that is as much about software and technology as it is about a business vision. \n\nApple designed the "whole product" (i.e. software, hardware, upgrade policy etc) whereas Google took the "partial solution" approach (i.e. only the mobile OS and ignoring the other aspects that impact software usage and user experience). \n\nUnfortunately, this approach seems to have pushed Google/Android deeper into the "Who gives a rat\'s ass about upgrades, I\'ll just buy a cheap handset and throw it away in 12/24 months" market. '
p128
aS'&gt;When Android says "the update is ready X day" - often only a handful of devices will receive it that day\n\nActually, zero devices will get it that day. When the updates to AOSP are ready, Google works with their hardware partners who made nexus devices to get the latest version ready to push out. There\'s usually a new Nexus device that was the development platform for the new version, and that device is usually ready almost immediately, and depending on hardware other devices might be ready very quickly too. Once it\'s ready they announce that the update is ready and push out the update. At that point other OEMs start the same process, which can take weeks or months.\n\n&gt;When apple says "the update is ready X day", EVERY I device is going to get that update that day.\n\nBut the whole point I was making is that there\'s another milestone that happens months before this, that we never see. It\'s the point where the code is ready for the current device that Apple will be releasing in the fall, but they have finished optimizing the OS for all the other phones they\'re going to push it out to. That process can take a long time, but we never see it.\n\nMy point is that if Apple\'s goal was to push out updates as soon as they were ready, then in a few months this is what the process would look like:\n\n1. We\'d see iOS 9 get pushed out to the iPhone 6, and shortly after get pushed out to the 6 plus\n2. Over the next month or two, updates would get pushed out to the 5c and 5s\n3. Maybe the 5 or 4S would get the update too? The cutoff for updates is probably around there for iOS 9. If they get it, these would probably be the last to get it, and it would undoubtedly be missing some features.\n4. The iPhone 6S and 6S plus launch with iOS 9.\n\nThe percent of devices updated within a single year would be better than Android, but the process would look very similar, some devices would get updated much sooner than others.\n\nBut Apple doesn\'t want the people with the 5 to feel bad, and they don\'t want people buying the 6S to get the update last, so instead they hold the updates for all the phones until the newest phone launches, and then they push it out to everyone at the same time. This looks great, but it means that updates were ready and they were just sitting on them for a long time, no one complains though because it\'s a private schedule, so no one feels bad about it.'
p129
aS'I love how they think Apple was a genius for making their remote have 3 buttons. All it did was guarantee you need additional remotes when watching your TV. Not even having a volume control on a remote is ridiculous. '
p130
aS"I find it pretty surprising that people think they're entitled to free OTA updates. Time was you bought your thing and you were stuck with it. Now, Google and Apple keep developing the product and, where the hardware is able, work to push the new stuff back down to older handsets, for free. I really don't understand why people think they have grounds for complaint here?"
p131
aS"I think Apple has a corner on that market, though. \n\nGoogle's not a lot better, by any means, but Apple is much worse about keeping users from having any options."
p132
aS"I remember a good friend of mine got the first Android phone instead of the iPhone. I told him he was going to regret it simply because I was an apple fanboy. What happened? My iPhone was supported for a few years while his was neglected within the first year of ownership. He now sticks with the iPhone. Although I'm no longer a fanboy as I once was, I feel only Apple has done mobile software right (and Nokia, before being bought). "
p133
aS"Remember when Apple thought they didn't need Google's apps anymore?"
p134
aS'&gt; The only way Google could give you what you want is if they became their own carrier.\n\nReally? Apple has never been their own carrier, yet they never had the problem from day one.'
p135
aS'There are some objective points to be made. \n\nApple restricts user freedom\n\nAndroid updates are fucked. \n\n'
p136
aS"http://allthingsd.com/20120926/apple-google-maps-talks-crashed-over-voice-guided-directions/\n\n&gt; And if there were terms under which it might have agreed to do so, Apple wasnt offering them. Sources tell AllThingsD that Google, for example, wanted more say in the iOS maps feature set. It wasnt happy simply providing back-end data. It asked for in-app branding. Apple declined. It suggested adding Google Latitude. Again, Apple declined. And these became major points of contention between the two companies, whose relationship was already deteriorating for a variety of other reasons, including Apples concern that Google was gathering too much user data from the app.\n\nSo what happened was, Apple wanted Google Maps, but didn't want Google to do what they wanted with it. So Google gave them most of the app, but missing a key feature.\n\nRather than letting Google get their name on the app, Apple preferred to rip the entire thing out and replace it with their own crappy application.\n\nJust because they didn't want their users to realize they were using a Google product.\n\nYeah, Google didn't capitulate, and in the end got what they wanted: a branded Google Maps app on iOS with all features.\n\nApple realized how important it was to work with Google instead of against them when users flipped out over the insufficiencies of Apple Maps.\n\nEdit: the moral here is that you don't just dump Google apps because you want more control. You will kill your own product that way."
p137
aS'But then iPhone 4 users would cry about not getting iOS 7. \n\nApple does in fact strip certain features from the older devices though'
p138
aS"You're talking about app development, but I assume you're not a developer, because as a developer myself, I haven't had any issues with what you're talking about, neither have I seen many reports from other devs out there. \n\nAndroid versions prior to 4 have irrelevant market share now, and barely any devs support it anymore. For those that do, there are compatibility libraries back porting functionalities to earlier versions. Google has their own appcompat support library too. Overall, despite there being a couple of major versions, I haven't had any issues with compatibility between them, and neither did any of my friends who develop for Android (small sample size and anecdotal evidence, but I don't think there are actually any substantial problems). Just to note, it's not like Apple is a saint. Seems like every major release there are some breaking changes, like for example how iPads report their orientation (width and height seem to be switched depending on the release). \n\n\nNot sure either what you mean by half a dozen stores. There's Google Play and some people also support Amazon, but that's it. There are a couple of pretty big Chinese stores I think, but no one I know puts their apps there (mainly because they don't have Chinese translations, maybe it'd be worth it). "
p139
aS'The problem is like a hydra.\n\nYou have Google constantly updating Android and never looking back. Older devices can\'t run the updates due to hardware being outdated. And Google doesn\'t seem to even care to try and push security updates to older versions.\n\nCarriers are the worst stumbling block. Since they load so much bloat and still have that old telco thinking bogging them. It takes months to get final approval. I\'m looking at you AT&amp;T!\n\nThe manufacturers want their own look and feel instead of just using vanilla Android. Samsung, Moto, HTC. They all do this.\n\nI have a MotoX. Its the only one that I\'ve found that did addons that improve my Android experience.\n\nApple did it a bit better. One device, one OS. Pretty much updates almost all their entire model lineup. Plus you have to love how they "allow" there stuff to be sold with a carrier. The carrier is Apple\'s bitch instead of the way Android is done. \n\nUnfortunately I don\'t have the answer... I just wish they\'d push updates to my phone already :-('
p140
aS"Ironically, Apple is better for user freedom in the sense of they handle permissions way more intelligently than Google does. I won't install Twitter on my Note 4 because I can't root the phone to gain permissions controls (Verizonlong story short, I'm not paying for my phone); the app basically harvests your contacts the moment you run it. Whereas on iOS, it won't harvest your contacts until it asks you for permission to access your contacts and you explicitly give it permission to go in thereand you can use the app without that functionality if you deny it the permission."
p141
aS"* iPhone 4S (2011) can be updated to iOS 8 and I believe iOS 7 still gets security updates, meaning Apple is still expecting people on iPhone 4 (2010) to use their phones.  \n* iOS adoption rates are huge, iOS 8 is at about 70% across all devices.  \n* An iPhone's resale value after two years is usually $200-300.  "
p142
aS'Permissions are fucked on Android.\n\nApple needs to let me pick default apps for stuff.'
p143
aS'&gt; Apple preferred to rip the entire thing out and replace it with their own crappy application.\n\nWhich got Apple exactly what they wanted... Turn by turn on iOS.\n\nI honestly can\'t figure out what your point is. You are acting as if the mere weeks Google maps wasn\'t available on the iPhone made any difference at all.\n\nGo look on the App Store. Google maps is there. \n\n&gt;Apple realized how important it was to work with Google\n\nApple got what they wanted by NOT working with Google. What are you talking about?\n\n&gt;You will kill your own product that way.\n\nHmm... you may want to look at iPhone sales following the release of iOS 6. We don\'t need to speculate on this, you can see for yourself that they didn\'t "kill their own product" by doing what they did. '
p144
aS"Apple wanted a non-branded maps app with turn by turn that people liked.  They *did not* end up with that. They tried a non-branded app with turn by turn, but people didn't like it. Then they settled on a branded app with turn by turn that people like.\n\nBy capitulating, Apple retained their sales. If their sales were unaffected, they would have stuck with Apple Maps, but they didn't.\n\nBut my post isn't even about Apple. I don't get why you're focused on that. It's about how customers react when they don't have Google Maps anymore."
p145
aS'Mostly the having the right to modify my own phone bit. I used to use ios, but getting to modify my own device was one hell of a process. Jailbreaking was a pain, and Apple does their best to fight you on every step.'
p146
aS'chrome uses the safari engine as do all ios browsers so no speed improvements or web standards will happen once ios support ends. Apple refuses to allow browser vendors to use their own browser engine :('
p147
aS"Apple does keep user from having options, but it also means my Iphone 4 is still a useable phone while my Moto Droid is a paper weight. Apple tight integration of software and hardware has it's benefits and honestly what got me to switch from Android to Apple."
p148
aS"I don't know what else could have been done though.  They sell the machines at a loss and made up for it with sales of K-Cups.  Patent on K-Cups expired and they got no money from anyone not buying their brand coffee.\n\nThey went about it the wrong way, but this seems like the best way to reclaim that loss in revenue other than selling the machines for a profit which has a few issues:\n\n* Higher price drives away potential consumers\n\n* Building a quality machine that doesn't fail quickly means people aren't going out and buying more machines (unless they try and force obsolescence into the machines) \n\n* Opens up the market for cheaper machines to force them into a smaller market share\n\nApple gets a cut from every App sold on the App store and every piece of music bought through iTunes.  Android does the same, so does Microsoft.  Keurig is just trying to get to that pricing model"
p149
aS"I had nearly broken down to buy one of these (we have one in the office, so I thought it would be great to have one at home). I did the math and the per-cup cost was stupid, but the convenience is great, and for things like hot Apple Cider it's actually cheaper (these cost like $4 a cup if you find some place serving it). Sure, you could make it at home if you wanted a gallon of hot cider, but for an afternoon treat it's like 50 cents and takes no time. Same with things like hot cocoa, etc. Also, if you wait for sales and such you can pick up the cups at extreme discount.\n\nYou can argue with all the above, but the point is I'd finally rationalized myself into deciding I was going to grab one, I was researching which model even, and then they pulled this shit. Fuck these guys."
p150
aS'Typical Apple markup'
p151
aS'Dell\'s chargers are (or at least were for many years) a rather nefarious piece of technology.\n\nIf you use a dell charger with a dell laptop, you\'re fine. However, if you use a non-dell charger in a Dell laptop (for a good while HP laptops had compatible chargers IIRC), you will only get enough power to either power the laptop or charge the battery - not both.\n\nHow does it know? I mean, power is power, right? \n\n[This nasty little bit of tech right here does it.](http://www.laptop-junction.com/toast/content/inside-dell-ac-power-adapter-mystery-revealed)\n\nApple\'s ~~ever-changing connectors~~ (edit:see note) and often ridiculous control of third party solutions are a dickish way to do things, but at least you can see what\'s going on.\n\n(apologies for the exaggeration, Apple Defense Force. I repair and support a lot of Apple devices in my company and elsewhere that are of various ages, and while it may not feel like it to \'normal users\' who only own a few devices at a time spread out over years, to me it\'s sometimes irritating dealing with assorted Apple stuff still in use some of which are up to 12 years old. I expect wild variations on PC equipment, so I rarely pay it any attention since I use a set or two of universal adapters to address this. My main point still stands about the Dell laptops, as well as the offhand reference to my opinion on Apple\'s "often ridiculous control of third party solutions." ) '
p152
aS'Yeah, fuck Apple for ensuring a quality customer experience by developing hardware and software instead of the horrendous shit show that Windows always has been.'
p153
aS"Not sure why this guy is being downvoted, other than the obligatory Apple hate\n\nMicro-USB's main advantage is its universality. Before it, every phone had its own proprietary charger and that was a nightmare. People forget that Apple was one of the few manufacturers who stuck with a single charger for something crazy, like 10 years.\n\nLightning is still proprietary but *from a hardware perspective* has many advantages over Micro-USB, possibly the biggest being its durability (especially on the female end of the port)."
p154
aS"Yet it's totally cool for Samsung to support 3 different generations of the MHL standard for video out in the past 4 years, and even have a dozen devices that don't support it at all. \n\nSo you had, say an older Apple 30-pin adapter for VGA for your iphone. You could have used it for 5 years for every upgrade and across iPads in that time as well. \n\nBuy an MHL adapter for your Samsung device in 2011? Had to buy a new one in 2012 if you upgraded your device. And your phone upgrade then in 2013 required MHL 2.0 (3rd gen).\n\nFinally have your 3rd gen MHL cable and upgrade to an S5 the next year in 2014? Oh, sorry, no MHL support there. Well, maybe the adapter that worked for my Tab 3 10.1 will work with my new Tab 4..... Oh, sorry again, no MHL support. \n\n(Yes, many have other video inputs in addition to charging for micro USB, but let's not pretend the alternative to Apple is a haven of user-friendliness and eternal support. However, I'm not trying to downplay micro USB or it's convenience for a majority of people as far as everyday use/charging goes)"
p155
aS"Lightning blows away USB 2.0 micro.  USB 3.0 micro is a freaking shit show. \n\nMore durable, reversible, numerous adapters including VGA and HDMI out. Lightning is theoretically capable of a small update to USB 3.0 speeds. \n\nIt'll be interesting to see how far apple pushes USB-C in new Apple products though. "
p156
aS"If we're delving into anecdotal territory here, both my S4 and my brother's S5 have had their micro-USB ports stop working entirely. \n\nIt's only fair that I mention that of the four lightning cables I've owned, one went dead on me. Apple replaced it no-cost though.\n\nAnd that's compared to the endless amount of micro-USB cables I've had to replace over the years. Granted, they're cheap, but its still a hassle considering it feels like I'm throwing out a different micro-USB cable every couple months or so"
p157
aS"My non-Apple devices are free, because I've already paid for them. I'd like to pay for HBO as well, but they don't want my money because I'm not glorious Apple master race."
p158
aS"&gt; easily breakable  \n  \nHi, I'm your friendly neighborhood IT guy, I've had to order FAR more lightning connectors than micro usb connectors in the past year because uhh..  Well if they're not just as easily breakable then I guess the only other possible answer is my Apple users are more stupid?  \n\n\n"
p159
aS"Then why doesn't Apple license their connector to other phone makers?"
p160
aS'Wow. Musk is a real capitalist, unlike some ISPs I can think of.\n&gt;Apple is also rumoured to be working on an electric car. Asked about that prospect, Musk said: I certainly hope Apple gets into the car business. That would be great.'
p161
aS"Apple hasn't charged for updates on any OS for years."
p162
aS"You should try the new Apple III. It's got a GUI! Say it with me, goooey."
p163
aS'I don\'t understand this "Apple of prisons" comparison. \n\nApple doesn\'t keep my emails. Apple doesn\'t keep my SMS. Apple doesn\'t claim ownership of anything I send through their devices. \n\nI think if I was Apple,.. I\'d be sueing the originator of this phrase for slander. (Imagine if someone said something equally inflammatory like "X/Y/Z product is the Google of Serial-Killers" ... or "A/B/C company is like the Microsoft of slum-lords" or whatever... that would be ridiculous. It\'s just clickbait/inflammatory/nonsense. )'
p164
aS'Well, Apple did it 16 years ago.'
p165
aS"Barely. Most YouTube iOS apps either don't work at all on iOS 5.x, or crash constantly. The YouTube website also crashes Mobile Safari 5.x constantly. \n\nThe only way us iPad 1 users can do anything with YouTube is by accessing its mobile-only website channel via proxy browsers like Opera Mini. And that is not nice at all. (I'm also accessing this Reddit using Opera Mini on my iPad 1. Trust me when I say it's far from a happy experience.)\n\nAlso: yes, planned obsolescence. Apple chose not to update the iPad 1 to iOS6 or later. From a technical stance, the largest challenge was memory usage. The best indicator for planned obsolescence by Apple is the failure of their App Store to show only those apps that do run on my iOS. By showing apps for newer OSes, they are luring us into updating."
p166
aS'Apple refuses to allow Chrome on iPad and iPhone.'
p167
aS'No, Apple makes *hardware* rounder, not icons...'
p168
aS'Basically what Apple did over a decade ago.\n\nSeriously, move to Mac OS:\n\n- First to have an actual usable app store\n- First to have a built-in spell-check/thesaurus (in every text box on your computer)\n- First to have built in file versioning\n- First to be a superior unix-based OS\n\nI could go on'
p169
aS"I'm well aware of DEP. I use it with over 3,000 devices. That is irrelevant to this particular discussion.\n\n&gt; this suggests to me to be another layering of enforcement of 'rules' by a root of the ios bypassing user controls on privacy.\n\nThat isn't a thing. That is not how iOS or iOS device management works in the context of location tracking. DEP lets a company force a device to be enrolled in a specified MDM before it can get through the setup assistant. You can set a few other things during this process as well such as removing the ability to remove the MDM profile, remove the ability to pair the device with computers, and put the device in supervised mode. It has nothing to do with location tracking. The MDM itself does that through an agent, which is just an application. The application gets no API access that any other application on the app store wouldn't have access to. They follow the same approval process as every other app in the app store. I know for a fact some MDMs have found a way to remotely control iOS devices, but Apple rejected the application becuase they don't allow it. That is just an example."
p170
aS'Look, this should tell you all you need to know about Verizon.  I have a company issued iPhone 5c thru Verizon.  Recently my company has disallowed employees from inputting their own Apple ID as we have had some issues with persons with iPhones being terminated and management not being able to access the phone because they don\'t know the Apple ID password \n\nThis is my only phone.  I haven\'t paid for a cell phone in 8 years, since I dropped my personal phone with att due to the perks of my work phone.\n\nSo with this new policy change I begin to understand that i may have to venture back into the cell phone market in order to continue the "smartphone experience" as I now know it.\n\nSo I walk into Verizon after doing some very basic preliminary research about what is offered and what my budget will be for a smartphone.  \n\nManager of the Verizon store is actually the person that greets me after I sign in.  Asks me what I am looking for and I answer honestly:\n\nNo contract.  Unlimited and non throttled data.  Less than $100/ month.  \n\nHe doesn\'t even take the time to think about a response - just flat out tells me and I quote:\n\n"We\'re not that store, sorry"\n\nOk, no problem sir.  I appreciate you not wasting my time.  \n\n\nHaven\'t jumped in yet, but when I do, it may very well be with T mobile or Metro PCS as I will not sign a contract.\n\nEdit: a word'
p171
aS"Now I'm curious. What is the longest that any current phone can do GPS tracking?\n\n3 days is certainly technically feasible, in that a dedicated tracking unit powered by a battery with the capacity of a typical smartphone battery could easily do far more than that (a couple months, at least). I'm kind of surprised Apple doesn't support this...I would have expected the M7/M8 coprocessor to be able to monitor and log the GPS, the same way it can monitor and log the other motion/position-related sensors to provide very low power motion/position data logging. But doing some Googling, it appears that the M7/M8 does not deal with GPS data."
p172
aS'Wow, Apple is killing it.  They will be a trillion dollar company very soon.'
p173
aS'Apple makes a lot of exclusive apps on their own os and nobody panics, microsoft makes a skype feature on their own store and os and everyone loses their minds.'
p174
aS'Wait really?  Apple protecting peoples private data?  '
p175
aS"Apple has one of the best track records with regards to their customer's data. "
p176
aS"It isn't like Apple is selling the data or anything. They are using third parties to verify the accuracy of Siri's dictation. \n\nThe data sent to third parties is the phrase that was spoken, and what Siri understood it as. The third-parties are just desks filled with people who listen to it and mark if Siri's understanding was accurate or inaccurate. "
p177
aS'Hell, on OS X, Apple lets you uninstall SYSTEM apps. '
p178
aS"Apple is EXACTLY the reason this is happening. They've been strong arming labels against Spotify. All hail Apple! The supporter of competition! /s"
p179
aS'You either say "The Amazing Macbook: You won\'t believe this new feature!" to get clicks from the Apple circlejerk fanbois at /r/apple. Or you say "Apple sucks! Lets all gawk at the Macbook" to get clicks from the anti-Apple circlejerk fanbois at /r/technology.\n\nEither way, you get tons of traffic and then throw as many ads as you can in their face and collect your check. Objective journalism is dying. Why bother to write a good article when this gets you way more money?'
p180
aS'Yeah, I think most of the people here don\'t realize that the new Macbook is the old Macbook Air. The Air is a very specialized machine that\'s only a good choice for a very specific kind of customer.\n\nThis article is certainly negative against this Macbook, but it\'s not negative against Apple. If you read it, it even says "*Go to the nearest Apple store. Marvel at its engineering. And then buy the MacBook Pro.*"\n\nThe Macbook is for people who travel a lot, have very limited needs and really want the portability and weight of a tablet with the features of a laptop. Oh, and they want a fashion accessory and status symbol. If that\'s what you\'re looking for, the Macbook is everything you hoped for.\n\nBut as bad as the Macbook is, the Macbook Pro is fucking awesome. I\'m a PC guy as well as an avid gamer. I built my PC, I\'ll never give it up. But I jumped to an MBP as my laptop and fell in love. MBP\'s are built like tanks and last forever. Also once you get used to MacOSX, it\'s a fucking awesome laptop OS. \n\n**TL;DR**: I wouldn\'t buy a Macbook for the same reason this article states. But I would buy a Macbook Pro... just as this article states.'
p181
aS"I've never been able to understand the laptop touchscreen. My wife had one briefly, and I though it was stupid reaching your arm up to touch stuff. Not to mention, that laptop had a shitty touchpad. Honestly, give me a good touchpad and no touchscreen any day. Apple does that great. If they made some kind of convertible, I'd agree, but the way it is, I'd never hold it in a way to care."
p182
aS'Yes. That is how it works with iOS though. Apple sets a date, carriers finish testing by that date.'
p183
aS"This was Google's selling feature to the carriers and manufacturers when Android first came out.  It's the reason Android exists now.  They sold the control to carriers and manufacturers in direct opposition to what Apple was doing.  \n\nIt's hard to put the genie back in the bottle."
p184
aS"Because the carriers won't buy-in. This is one of the crazy things that happened when Apple came out with the iPhone. The carriers had certain restrictions for devices which access their networks, certain rules that the hardware manufacturers needed to play by, then Apple showed up, dropped their 12-inch cock on the table and the carriers actually competed to gobble it up. ATT nearly destroyed their business in the process due to the massive bandwidth requirements of the iPhone compared to the rest of mobile hardware portfolio.  \n\nAndroid and BlackBerry were playing in the old world, working with the carriers, etc and now they're still caught in parts of that world, even a decade later. \n\nMicrosoft can say that they'll push these out without the carrier buy in, but without the 12-inch cock they'll find themselves sitting on an inventory of phones with no sales channels to tap into.\n\nSource:10 years in mobile telecom hardware "
p185
aS'The imessage e2e is false. Apple is able to push the messages to each device because they have the ability to decrypt server side. Meaning police, or anyone with access to the server, could decrypt your messages. '
p186
aS"Because iMessage's end-to-end encryption doesn't stop eavesdropping either. Apple distributes the keys and if the FBI asks them for a key to decrypt your messages, it can be handled just as smoothly as you logging in on your new iPad."
p187
aS'Apple tells you what public keys to encrypt to. They can give you any key they want. /u/pion3435 is right '
p188
aS'Which is why the only way I would see this happen is for them to introduce an relatively expensive proprietary storage system and sell it with buzzwords. Even that is a long shot. Apple makes too much on not having expandable storage (a big reason why Android manufacturers have moved away from it)'
p189
aS'I don\'t think the problem has anything to do with Apple\'s morals, per se.  Contrary to your assumption, Apple did not go out of their way to frustrate switchers. It was an unfortunate technical oversight for which [Apple has since issued a fix.](http://mashable.com/2014/11/10/apple-imessage-android-fix/)\n\nIf people, as you say, are still falling all over themselves to buy iPhones, it\'s probably because a) this issue didn\'t affect anyone they knew, or b) the iPhone has many attributes that make it desirable despite this and other overblown "-gates" that haters seem to trumpet about every new Apple product.'
p190
aS'Apple has a recycling program and I think that counts in their favour.'
p191
aS"I loved what happened right after it.  Samsung makes apples chips.  Well Apple won the lawsuit but nobody paid attention to when their chip deal was set to expire.  It was right after the ruling.  So samsung jacked up the chip price for apple.\n\nApple couldn't do anything about it because it would require them to find a new manufacturer and have them retool.  All the while no chips to make their iphones, ipods, and ipads.  It was the perfect revenge.\n\nEdit: They jacked the price up by 20%, only for apple.  http://www.zdnet.com/article/samsung-hikes-apple-chip-prices-by-20-percent-report/"
p192
aS'Samsung raised their prices two years before the contract was set to expire.\n\nNearly 20% of Samsung\'s business comes from semiconductor sales and Apple is their #1 customer. They\'re not going to risk losing their biggest account to get "revenge" over a lawsuit. If Apple decided not to renew the contract, Samsung would take a loss on the following earnings report.\n\nIn any case, the 20% price hike is a drop in Apple\'s bucket. They have enough cash on hand to buy Samsung Electronics. '
p193
aS"It was in the article that you just posted.\n\n&gt;Samsung's contract to provide chips to Apple expires in 2014.\n\nThe ruling was in 2012. "
p194
aS"Apple don't have anywhere near enough money to buy Samsung... by most definitions, samsung is the *larger* company"
p195
aS"You are officially retarded.  They couldn't buy samsung.  They couldn't afford it.  Yes Apple has a higher net worth than Samsung but net worth is total assests minus debt.  Samsung has twice the assets of Apple (As per wiki, just check out both companies pages), but apple only has twice the net worth.  Samsung as a company is worth more than apple.\n\nAlso there are very few companies that can make high level chips and processors.  Samsung is one of them.  Go take apart your computer and start reading the names on the chips.  Samsung will be on a lot of them.\n\nEdit:Apple makes consumer devices, thats it.  Samsung has it's hands in everything from construction equipment, life insurance, health care equipment.  The list goes on."
p196
aS'Samsung Electronics has total assets of 230.422 trillion (about $200 billion USD) which is about how much Apple has in cash. \n\nSource: http://en.m.wikipedia.org/wiki/Samsung_Electronics'
p197
aS"Samsung Electronics is a subsidiary  not a division. There's a difference.\n\nI'm not referring to the Samsung that's in the business of ship building, clothing, medical equipment, life insurance, health insurance, entertainment, etc. I'm just talking about the *company* Samsung Electronics that directly competes with Apple. \n\nApple's net worth is not $119 billion. If you're talking about net worth (market value), Apple is worth more than $700 billion. They are the most valuable company on the planet. According to the last earnings call, they have cash assets of almost $200 billion.\n\nWhy are you so enthused over Samsung's financial well being? I only know all this because I'm an AAPL shareholder and follow the markets closely. Otherwise, I really wouldn't give a shit lol"
p198
aS'&gt; Depending on how you define "spying" this is definitely not true for Apple\n\n[Most certainly is true, they are uploading people\'s files over the Internet without their permission or knowledge.](http://www.slate.com/blogs/future_tense/2014/11/03/filevault_2_mac_users_unsaved_files_and_screenshots_are_automatically_uploaded.html)\n\n&gt;Apple wants to make great services to drive hardware sales\n\n[Yea right. They even lied about Celebgate, they were responsible but couldn\'t admit they left a backdoor for governments/law enforcement and it was cracked.](http://bgr.com/2014/09/25/jennifer-lawrence-nude-photos-apples-fault/)'
p199
aS"That's a little different. It's what Apple did with their apps. I can and do watch porn on my iPad. The oculus is meant to be a peripheral. It not reading anything except content with its manufacturers stamp of approval would DESTROY The product. "
p200
aS"Think of it like computers. The Texas legislators want him to talk to Best Buy and other consumer electronics stores instead of opening his own Apple style stores. Doing it their way, he doesn't get the chance to compete with the dealers thanks to protectionist laws. "
p201
aS"Awww you mean Apple isn't going to intentionally render it's old devices useless? How thoughtful. \n\nFucking assholes. "
p202
aS'You underestimate the number of unsuccessful, 20 year old socialists who spend their days bitching on Reddit about rich people. Reddit, the San Francisco based website. They have Facebook and Instagram and Twitter profiles and own Apple computers and phones too. But fuck those hi tech companies run by billionaires who "only" have a few million dollars to charity. Those cunts! Now, back to playing GTA5.... at least those cunts live in NYC and not the Bay Area, amirite?'
p203
aS"If these rumors are true, then it's probably the most surprising thing Apple has done in a long time. Maybe they finally realized how much ground they're losing to Android, especially by people who don't want to upgrade their phone every year.\n\nBut too little, too late for me. After 8 years on iOS (since day one in 2007), and my next phone will be Android."
p204
aS"&gt;  it's probably the most surprising thing Apple has done in a long time.\n\nYou mean, since the last time they focused on stability?\n\n&gt;Maybe they finally realized how much ground they're losing to Android\n\nThey're *gaining* these last few months. The big phones really did a number on sales, especially in China.\n\n&gt;especially by people who don't want to upgrade their phone every year.\n\nI don't know any iPhone users - geeks, normal people or anything in between - who do. I see no reason why they should, either. I also see no way that Apple encourages such behaviour except by releasing a new phone every year - something that happens to every other model of phone as well."
p205
aS"For a while I've been sha512 the company name, sha512 the question, sha512 the answer, combine everything together in a standard format and sha512 the whole thing. This way I could derive all answers. There were a couple of issues though:\n\n1. If the company name changed their formatting (Apple decides they want to stylize their company name as aPPLE), it would throw the whole thing off---normalizing to upper or lower would easily fix this.\n\n2. If the wording of the question was altered, there would be no way for me to derive the answer.\n\n3. Some places limit how long your answer can be. This would mean I would have to guess the limit and make the appropriate cuts to my finalized answer.\n\nAt this point, I'm thinking of treating it like another password and just randomly generate answers, and let my password manager take care of the rest. Obvious down side is I can't derive the answer..."
p206
aS"I don't understand who this phone is marketed towards.\n\nWith the GS5, Samsung had all sorts of unique features that differentiated it from the iPhone. Yes, the iPhone sold a lot better, but Samsung had their own pretty sizable target market. Now what do they have? \n\nIn their quest to compete with Apple, they've turned their unique device into an iPhone wannabe. The GS6 is just an iPhone clone.  What's the point? If someone wants an iPhone, they're going to buy an iPhone.  \n\nWho, exactly does this device appeal to? If you're an Android fan who favors customization, expandability, and other such features that Apple doesn't offer, Samsung used to have you covered. Not anymore. The GS6 tries to combine both worlds (iPhone and Android) and ends up appealing to neither."
p207
aS'I think the bigger issue is that the other manufacturers got their shit together and started making decent phones. For a long time, there really wasn\'t much worth owning outside of a Samsung aside from a Nexus device. \n\nHTC, LG, and Sony actually make rather good phones now as opposed to some of the crap they used to churn out. Samsung just faces more competition in general now, even more so if you consider the larger iPhones. They had a perfect storm of good fortune with most other Android devices being lackluster and Apple refusing to budge from the 3.5" - 4" space for a long stretch, but expecting them to be able to ride that wave forever is just foolish.  '
p208
aS'They basically got rid of all the features people liked about the Galaxy S series and made it into a shitty Apple clone. They got what they deserved.'
p209
aS"That's just the way it is on an iPhone. it's called security. No one wants Microsoft to just be able to download a bunch of daemons to pollute your shit, you want them to be able use the protocols Apple has in place safely. Sandboxed apps means they can't talk to the rest of the system outside their small playground. That means they can't just leech your location data 24/7. Or grab these caches over here in the OS. "
p210
aS'Dear Samsung: copying Apple is not going to keep people buying your phones for 2x the price Chinese manufacturers charge for the same thing. '
p211
aS"&gt;...well known for taking any excuse to rag on Apple.\n\nIf Apple provides the fodder. It's like giving a kid fireworks and matches, then telling them not to light anything off.\n\nApple needs the constructive criticism, they have erred far from their righteous path. My efforts have gotten the 2011-2013 defective MacBook Pro's fixed for free.\n\n&gt;He's recently taken a holiday from r/technology...\n\nOnly because it hasn't been warranted. The Apple Watch was their last great failure and now they are off to make electric cars or something.\n\n&gt;...after several commentators called him on it and referred to him as a troll.\n\nPeople do that to anyone they don't agree with, so that's nothing new.\n\n&gt;like the graph he linked showing Mac market share has been going up\n\nYea, but what you don't see is the part where Mac market share was near 11% back in the XP days.\n\nCompare it to the Windows 7 acceptance line and that shows you right there the world has rejected Mac's. All that Microsoft needed to do was to put out a decent, secure operating system and it did Apple in [so they moved off to iPhones etc.](http://static4.businessinsider.com/image/53289ae5ecad047b21ed92ff-1200-900/2014_03_12_profit.jpg)"
p212
aS"I didn't know it was still trendy to bash jobs. Blah blah blah jobs greedy apple bad!\n\n\nJobs was a business man, Woz is an engineer, different outlooks and philosophies on things. Apple is a business, it exists to make money. How people seem to get so worked up by this I'll never understand."
p213
aS"So Apple is going to take a stand and do ......\n\nThat is how someone in SW's position has to finish the sentence. He has actual power to make change. "
p214
aS'&gt;If Apple provides the fodder... Apple needs the constructive criticism,\n\nI don\'t disagree but you are not constructive. \n\n- Your posts are littered with personal attacks ("Blowhard I\'ve", " greedy, abusive, control freak S.O.B.")\n\n- Your posts are full of hyperbole ("Stockholm Syndrome Effect").\n\n- You misrepresent data. The aforementioned graph you linked that shows Mac market share rising, for example.\n\n- You trot out tired old arguments that no longer apply and are demonstrably wrong - that the Mac is losing market share, for example. It hasn\'t been losing market share for *years*.\n\nAll in all, your anti-Apple posts read like your Mac exploded and killed your puppy. You take it way too personally, get too worked up and never make any valid or compelling arguments.\n\nAnd it\'s not like there aren\'t valid or compelling arguments to make. You just always seem to avoid them.\n\n&gt;People do that to anyone they don\'t agree with, so that\'s nothing new.\n\nNo one does to me. The approach, the language, the arguments all count for more than the stance you take.\n\n&gt;My efforts have gotten the 2011-2013 defective MacBook Pro\'s fixed for free.\n\nYou\'re also delusional if you think you had any influence on Cupertino whatsoever.'
p215
aS"It's not all that peripheral really.  Wozniak created from his brilliant mind the device that Jobs saw a vision of the future in as well as a way to profit in it.  Any statement by Wozniak is a statement by one of the fathers of personal computing and as such is going to spark conversation relating to the past, present and future associated with it.  Apple is very much a different company from the original vision of its creator.  Apple is also one of the wealthiest corporations in the world and doesn't need individuals to defend it as if it's a bullied baby."
p216
aS"That really isn't a manipulation though, it's the truth -- the apple experience is greatly improved if you have more Apple products. The real genius from a business perspective was to make those products interdependent. I'm far from an Apple fanboy, but it's hard to not at least respect that business savvy. "
p217
aS"To be fair Woz said we wouldn't have even had the old Apple Computers if it wasn't for Jobs. Woz would never had the business vision. You can't have one without the other. "
p218
aS'He pretty much made the first Apple computer himself. Back then, "computers" weren\'t things you would normally see in a home.'
p219
aS"&gt;you can't possibly deny that Apple is doing really well\n\nApple is doing well for Apple, not by many of it's customers or their workers.\n\nhttp://www.businessinsider.com/how-apple-trains-store-employees-2012-6\n\nhttp://gizmodo.com/5938323/how-to-be-a-genius-this-is-apples-secret-employee-training-manual\n\nApple is a toy, not a tool.\n\nTo get real work done now you need a real PC."
p220
aS'Probably left more on the table with the Apple deal than from the pricing. Then again, depending on the number of truckloads of money Apple gave them for it, who knows.'
p221
aS"Cingular was the only company that would give in to Apple's strict terms when Apple was peddling their phone to carriers. Apple basically wanted there to be no carrier-specific phones, OTAs, or bloatware. Apple wanted to be in 100% control of the phone."
p222
aS"I haven't read on what criteria they use to estimate the value but generally speaking, in the long run, Google has much better cards. Apple has almost no diversification and not really that much which sets them apart from the rest. Almost all revenue is generated from their phones and as we've seen things can go down really quickly in that business. Google on the other hand has its fingers stuck in almost everything, soon also in the automotive industry healthcare and robotics which might become a great alternative to Advertisment for generatinf revenue"
p223
aS"When all you do is hoard money and never innovate it's pretty easy to accrue value.\n\nApple is one of the companies that liberals should hate, yet flock to. I wish I could say I feel sorry for delusional Apple worshippers, but the amount of arrogance that comes out of them makes me not care at all."
p224
aS'I know, its that this this topic came at worst possible time while everyones phone getting crashed. Like how Apple said iPay was supposed to be secure most celebrities got their nudes leaked a week before'
p225
aS"Cool. Apple keeps things close to the vest, so we don't know what they're working on. Google is the company known for over promising and under delivering. See Google Glass and what will likely be Google's Car as well. Wait until it comes out before calling it innovative. "
p226
aS'Exactly what "great things are we referring to? The iPhone that is still under specced? Or the new iOS with its revolutionary custom keyboards and same exact functionality and mediocre at best interface as the day the original iPhone came out? Love the customization and new color scheme tho!  Or maybe that new Macbook with its single (not final spec) USB port that doesnt let you charge and use a thumb drive at the same time? Or maybe the other Mac products that havent been redesigned in a decade and cost 3x more than a similarly specced PC?  Is Apple rapidly expanding a fiber network to pressure telecoms? Did apple invest in spaceX to help future deployment of global broadband? Did Apple come up with a novel VR headset usable by anyone at bargain basement prices? Do they have a streaming dongle that is affordable by literally everyone? Fucking iSheep jesus christ.'
p227
aS"For all you know, Apple is working on more self-driving cars than Google. Apple doesn't talk about products that are still in development."
p228
aS"If Apple can push random music onto your phone without your permission, they can push out some sort of spyware to compromise your encryption. \n\nEdit: Why the down votes? If you think this isn't possible lets discuss it.\n\nEdit 2: It has been pointed out that the U2 album was a crap example. Those posters are correct, it isn't remotely the same mechanism that would be used to install code. For a better example I'll refer you to [Apple pushing an OS update](http://www.reuters.com/article/2014/12/23/us-apple-cybersecurity-idUSKBN0K108W20141223). In this article an Apple spokesperson claims that they have had this capability for 2 years. "
p229
aS'&gt; It appears you missed the Apple Versus everyone lawsuits of phone patents which very much included Wi-Fi patents.\n\nFirst, I think you mean "everyone v. Apple" litigation - or even more accurately: "patentee v. a bunch of tech companies including Apple" litigation - like these:\n\n[Apple loses $24m patent lawsuit to pager firm ](http://www.theguardian.com/technology/2014/nov/19/apple-loses-24m-patent-lawsuit-to-pager-firm)\n\n[Apple didn\'t violate wireless tech patents, jury finds](http://www.cnet.com/news/apple-not-violating-wireless-technology-patents-jury-says/)\n\n[WiLan files new patent lawsuits against RIM, Apple, other companies](http://www.computerworld.com/article/2493699/technology-law-regulation/wilan-files-new-patent-lawsuits-against-rim--apple--other-companies.html)\nSecond, not all "wireless communication" is Wi-Fi. Often, Wi-Fi products get dragged in as just one form (albeit the most prominent) of wireless communication. Some of the older patents aren\'t even centrally focused on Wi-Fi - they cover things like pagers / Bluetooth / generic RF, but Wi-Fi products happen to utilize the same technology.\n\nThird - these lawsuits really aren\'t among members of the community, but are between an outsider (sometimes a patent troll) and members of the Wi-Fi Alliance.\n'
p230
aS"&gt; Apple did not disclose which charities Cook donated these shares to\n\nWell I guess I'll just sit over here and speculate. \n\n"
p231
aS'DAE Apple is evil?'
p232
aS'People always forget when shouting about "OMG FOXCONN!!!!" that Acer, Google, Sony, HP, Amazon, Cisco, Microsoft, Dell, Nintendo, and a ton of other major companies use the *same damn company*.\n\nPeople also forget that after a ton of violations of Apple\'s labor policies, Apple dropped them for a different company.  Hell, apple actually started manufacturing some of their computers here in the states in the last few years. (Texas, unless I am mistaken)'
p233
aS"This post is some serious Apple dick suckage. Holy hell, saint Cook, CEO, donates 1% of wealth to charity, let us praise him for his generosity to the low people! Apple is doing it's part! I feel better now after buying this overpriced watch."
p234
aS'&gt;Headline: Apple does something positive.\n\nOh god, these comments are going to be a race to try and put a negative spin on this. \n\nWithout reading comments, I will take a guess what is going to happen in this thread;\n\n1. Complaints about this not being a big enough donation. (perhaps with people bragging how much more percent wise they donate)\n5. Instant comparison with other people who donated more. (buffet and gates incoming?)\n3. Blaming Apple for having made all that money through overpriced products. (perhaps with a price comparison to other brands/companies, who of course would love to be able to charge as much as Apple)\n2. Irrelevant babble about lack of quality of Apple products.\n3. So what? I have an article saying Apple did X, which is bad, which means this donation is now irrelevant.\n4. Oh yeah, but it is probably the wrong charity, or one that somehow benefits Apple. (like a charity which operates close to California or something)\n6. Obligatory "I am not an Apple fan, but ..." sentences put in comments just so that redditors know that the following positive comment is somehow not seen as a general trend because god forbid you think Apple is a cool company.\n\nEDIT: FUCK, I missed the most obvious one; talking about Jobs being an asshole, dead, and an idiot for being a cancer victim duped by the alternative medicine crowd.'
p235
aS'Telco worker here and I don\'t think any landline services charge for peak usage or overage in the US--but mobile carriers do, and have since I started in \'04. So all my comments are going to be aimed at mobile.\r\rOverage used to be way, way, way more expensive. Like a penny a KB. $10 bucks a MB. Then the iPhone happened and all Hell broke loose and people started streaming everything. The previous smartphones, Palm devices and Blackberries, had been designed to use as little data as possible. The iPhone was not. Apple gave no shits its hardware was basically killing people--no service, no 911.\r\rPeak hours became any hours and all 3G services in big cities flat out collapsed during certain times of the day. That doesn\'t only mean no data, at the time it also meant no phone calls, either (sometimes not even 911). So, they took away the unlimited plans, because holy shit, and reinstated overages. Why?\r\rSupply and demand. If the demand for your product is too high for you to be able to meet, reduce demand by raising prices. This is Economics 101. \r\rBelieve it or not, telephone companies *have* to offer 911 services, and they *have* to work, and its something Telco workers are proud of--helping cops/PSAP locate Amber Alert kids feels *good* \r\rMostly what the Telcos want is for Netflix to buy its own "lane" on the information superhighway, one that its users can access for free--unlimited streaming on Netflix, without data caps that doesn\'t count against your data because Netflix is paying for it. Telcos basically want the big fishes out of the little ponds.'
p236
aS'HE DID. \n\nYou\'re one of those people who would have said "he\'s just doing it to better his public image" had he given publicly. \n\nDo you know about Product(RED)?? Apple threw its full weight behind that with several editions of iPods, etc. With a TON of money going to that foundation. It\'s not like he *never* used his fame/apple\'s fame to do good. \n\n'
p237
aS'Like he did with the many products Apple released for the PRODUCT(RED) campaign?'
p238
aS"Apple does more for Chinese labor than any other tech company, feel free to look at the Fair Labor Association audits for yourself.\n\nBut since you have a chip on your shoulder and herd with the HateSheep(tm) you can't see past your own ridiculous biases."
p239
aS'&gt; if the service is free, you\'re the product\n\nI\'m afraid this ship has sailed and now everyone thinks this is gospel, but this phrase is a pretty big generalization. Sometimes it applies to bad behaviors and sometimes to benign ones. \n\nI think it hinges on how careful a company is with your identity. \n\nThis VPN example shows an example of a company\'s literally selling data about a person that can be tracked back to you. That\'s really not good.\n\nHowever, people will also say that companies like Spotify or Google make you "the product" when you use their free services. \n\nIn those cases, you\'re "the product" in the same way you\'re "the product" when you drive down there street and see billboards. \n\nCompanies like Spotify and Google don\'t sell *you*, they sell advertisers on access to your field of view. They don\'t sell your data or identity. Rather, they use data points to show you ads you might care about. \n\nApple goes about it differently: they use free services to lock your into iOS and keep you on the platform. You\'re not "the product," but they\'re using free stuff to keep you from leaving.'
p240
aS"And? Google's core business is machine learning, Apple is a consumer electronics company. Next someone writes an article about GM's cars being better than Microsoft's..."
p241
aS'Windows 8 has been a disaster for the small business I work at. About 60 employees. Slowly we are adding more Macs as a result. If only Apple cut their prices 20% or so we would be a Mac company within a few years. Apple really should have taken advantage of the windows 8 disaster while they could. \n\n'
p242
aS"The way Apple turned out after Steve Jobs return, the poor quality of hardware and annual OS X upgrades, the constant UI change abuse and iCloud hacks and other major failures of basic security, I'm surprised anything old of Apple gets any substantial amount of money.\n\nAfter a series of bad hardware from Apple, their run around about it for years, discontinuing hardware out of the blue and then bringing it back as a overpriced netbook, bloating their machines down with upgrades/updates. Removing the ability for users to upgrade their own hardware etc., I'm just so sick of them that I wish they never came back from the dead.\n\nMicrosoft shouldn't have loaned them any money, but they needed a competitor and Apple lived up to their obligation of being the worst one possible for us users and the best one for Microsoft.\n\nI've found blessed relief on Windows with it's decade long stability and better choices of software and hardware.\n\nAs a former near 30 year user of Apple, I'll never go back to them regardless. Just tired of always being yanked by my chain by a bunch of Cupertino morons who have no long term objective and treat it's customers like crap to be wallet raped and spied upon. Yea ALL Safari searches are going to Apple, even if you use a alternate search engine.\n\nI really wish Linux was more like Windows, a lot more stable, more software choices and had their act together."
p243
aS"Apple without the goodness of the Woz and just Jobs control freak crap was nothing but pure evil.\n\nI lived through so much shit with them hoping it would get better, but then realized Apple was playing a Stockholm Syndrome Effect game of constant and stupid change to keep us suckers paying more to fix it.\n\nHow do you think Apple made all that money? They conned people wholesale much like a auto mechanic who keeps breaking another part on your car so you have to come back again and again until you wise up and go elsewhere. Or like casinos, getting suckers to part with their money until they realize it's a losing game and they don't step in one ever again.\n\nWhere is that $300 iPod Classic now?, obsolete and forgotten.\n\nMy old $300 PS3 still is working just perfectly fine, gets updates etc. and the PS4 will also last a long time and do it's function perfectly.\n\nThe PS 3 automatically fixes itself if corrupted, did any of the Mac's or iPods so that? No.\n\nEverything about Apple is designed to get one back into the Store so they can sell you a new one prematurely or something else entirely and not telling you how much other stuff your going to need to get it all to work right.\n\niCon is right."
p244
aS'So Apple is not a consumer hardware company. They are a company that makes Operating Systems and devices that run the operating system they create.\n\nSimilar to Microsoft, Blackberry and Google I would say.'
p245
aI1
aI1
aI1
aI1
aI1
aI1
aI1
aI0
aI0
aI1
aI1
aI1
aI1
aI0
aI0
aI1
aI0
aI1
aI1
aI1
aI1
aI0
aI1
aI1
aI0
aI1
aI1
aI1
aI1
aI1
aI1
aI0
aI0
aI1
aI1
aI1
aI1
aI1
aI1
aI1
aI0
aI0
aI0
aI1
aI1
aI0
aI1
aI1
aI1
aI1
aI1
aI0
aI0
aI0
aI0
aI1
aI1
aI1
aI1
aI0
aI1
aI0
aI1
aI1
aI0
aI0
aI0
aI1
aI1
aI1
aI1
aI1
aI1
aI1
aI1
aI1
aI1
aI1
aI1
aI0
aI1
aI0
aI1
aI1
aI1
aI1
aI0
aI1
aI0
aI1
aI1
aI1
aI1
aI0
aI1
aI1
aI1
aI1
aI1
aI1
aI1
aI0
aI0
aI1
aI0
aI0
aI1
aI1
aI1
aI1
aI0
aI1
aI1
aI1
aI1
aI1
aI1
aI1
aI0
aI1
aI1
aI0
aI0
aI0
aI1
aI1
aI1
aI1
aI0
aI0
aI1
aI1
aI0
aI0
aI0
aI1
aI1
aI0
aI1
aI0
aI1
aI1
aI1
aI1
aI1
aI1
aI0
aI0
aI1
aI0
aI1
aI0
aI1
aI1
aI1
aI0
aI1
aI1
aI0
aI0
aI0
aI1
aI0
aI0
aI1
aI1
aI0
aI1
aI1
aI0
aI1
aI0
aI1
aI1
aI1
aI1
aI1
aI0
aI0
aI0
aI0
aF-0.43333333333333324
aF0.2
aF0.0859375
aF-0.19285714285714284
aF0.25
aF0.22375350140056025
aF-0.1375
aF-0.17142857142857143
aF0.012121212121212163
aF0.16666666666666666
aF-0.6
aF0.0
aF0.0
aF0.0
aF-0.02857142857142857
aF0.1965909090909091
aF0.3121212121212121
aF-0.2088194444444445
aF-0.5
aF0.0
aF-0.15555555555555559
aF0.125
aF0.11243315508021391
aF0.3317807192807193
aF-0.09714285714285716
aF0.0
aF0.0
aF-0.4
aF0.2166666666666667
aF0.19999999999999998
aF0.15999999999999998
aF0.078125
aF-0.44999999999999996
aF-0.27
aF0.175
aF-0.25
aF0.10264550264550264
aF0.2333333333333333
aF0.07520833333333335
aF0.15580357142857143
aF-0.1020833333333333
aF-0.037500000000000006
aF0.19088888888888889
aF-0.4
aF-0.08
aF0.16008522727272725
aF0.0
aF-0.4
aF-0.275
aF-0.04242424242424243
aF0.1
aF0.40428571428571425
aF0.2357142857142857
aF-0.04242424242424243
aF0.1683035714285714
aF0.02187500000000001
aF0.8
aF0.05
aF0.158578431372549
aF0.3333333333333333
aF0.3666666666666667
aF0.08537108537108536
aF-0.041666666666666664
aF0.09687499999999999
aF0.06899080086580091
aF-0.008333333333333318
aF0.20886134067952253
aF0.04999999999999999
aF0.18367346938775508
aF0.0
aF0.35
aF-0.3
aF0.2558333333333333
aF0.19047619047619047
aF0.017613636363636366
aF-0.004824561403508778
aF0.45
aF0.07500000000000004
aF-0.6
aF0.2681818181818182
aF0.27499999999999997
aF0.5971428571428572
aF-0.07500000000000001
aF0.2107142857142857
aF0.06893939393939394
aF0.04526143790849674
aF-0.16666666666666666
aF0.008818342151675488
aF-0.30000000000000004
aF-0.06498015873015872
aF-0.010918003565062393
aF0.12329545454545454
aF0.12916666666666665
aF0.4
aF0.10606060606060605
aF-0.125
aF0.3285714285714286
aF0.0
aF0.17045454545454544
aF-0.16666666666666666
aF0.0
aF0.1486111111111111
aF0.0
aF0.0
aF0.19523809523809524
aF-0.07583333333333334
aF0.0512310606060606
aF0.07202380952380952
aF0.15000000000000002
aF0.3
aF0.1
aF1.0
aF0.2
aF0.0
aF0.46354166666666663
aF0.29935064935064937
aF0.2233424470266576
aF0.34285714285714286
aF0.0
aF0.014583333333333323
aF-0.010714285714285711
aF0.04999999999999996
aF0.1787878787878788
aF0.09523809523809523
aF-0.07
aF0.002272727272727271
aF0.0
aF0.40129870129870127
aF0.03333333333333333
aF0.0
aF0.15
aF0.06333333333333332
aF0.1
aF0.18666666666666665
aF0.27008928571428575
aF-0.12916666666666668
aF0.41875
aF-0.08541666666666665
aF0.029040404040404033
aF0.12124999999999997
aF0.07492897727272727
aF0.028661616161616162
aF0.25681818181818183
aF0.17936507936507937
aF0.6
aF0.17857142857142858
aF0.0
aF0.14835752482811304
aF-0.0916666666666666
aF0.0
aF0.07759740259740258
aF0.12250000000000001
aF0.17261904761904762
aF0.22499999999999998
aF0.16999999999999998
aF0.21999999999999997
aF0.25
aF0.0
aF0.16141975308641976
aF-0.15416666666666667
aF-0.024999999999999994
aF0.2625
aF0.14108766233766232
aF0.5
aF-0.15079365079365084
aF0.1097516835016835
aF0.0
aF-1.0
aF-0.0375
aF0.05555555555555556
aF0.0010942760942761086
aF0.11590979853479855
aF0.16428571428571428
aF0.5
aF0.18645833333333336
aF-0.0039682539682539385
aF0.25
aF-0.00833333333333334
aF-0.03507094757094757
aF0.00483004649671318
aF0.0
acnumpy.core.multiarray
scalar
p246
(g20
(S'f8'
p247
I0
I1
tp248
Rp249
(I3
S'<'
p250
NNNI-1
I-1
I0
tp251
bS'\xf4U\x7f\x03E\x9c\xd3?'
p252
tp253
Rp254
ag246
(g249
S'\x0bc\xffQ\x18\x1a\xc2?'
p255
tp256
Rp257
ag246
(g249
S'\xa1\x98\xb14\xc7h\xc9?'
p258
tp259
Rp260
ag246
(g249
S'L\xb8M(\x96\x03\xdb?'
p261
tp262
Rp263
ag246
(g249
S'\xb6\xf2q\x014\xa5\xca?'
p264
tp265
Rp266
ag246
(g249
S'yg\x89\xfc\xec{\xd1?'
p267
tp268
Rp269
ag246
(g249
S'\xefZE\x19\xb8\x92\xb4?'
p270
tp271
Rp272
ag246
(g249
S'\x1cJ\xc5\xda\x1a"\xca?'
p273
tp274
Rp275
ag246
(g249
S'\xa0\xdeH{\x8f\xb1\xb8?'
p276
tp277
Rp278
ag246
(g249
S'\xd31O\x07%\xbd\xe1?'
p279
tp280
Rp281
aI0
ag246
(g249
S'\x00\x00\x00\x00\x00\x00\x00\x00'
p282
tp283
Rp284
ag246
(g249
S'\x00\x00\x00\x00\x00\x00\x00\x00'
p285
tp286
Rp287
ag246
(g249
S'\x00\x00\x00\x00\x00\x00\x00\x00'
p288
tp289
Rp290
ag246
(g249
S'\x8a\xc6\xeb\xd3\xf4\xa5\x97?'
p291
tp292
Rp293
ag246
(g249
S'\xbev\xdcSj\x83\xc2?'
p294
tp295
Rp296
ag246
(g249
S'2\xb2\xe7\x89\xb4q\xbe?'
p297
tp298
Rp299
ag246
(g249
S'Z)\xbf\xb2\x92\xe4\xce?'
p300
tp301
Rp302
ag246
(g249
S'\xb3\x06\xb4\xdd\xe1:\xd8?'
p303
tp304
Rp305
aI0
aI0
ag246
(g249
S'F#O3\xb2t\xd9?'
p306
tp307
Rp308
ag246
(g249
S'\x82\xf7\x1e\x9b\x12\xca\xcd?'
p309
tp310
Rp311
ag246
(g249
S'R\x14\x8d\x19*\xee\xd5?'
p312
tp313
Rp314
ag246
(g249
S'\xe2\xa5\xdcf6\xcd\xc2?'
p315
tp316
Rp317
aI0
ag246
(g249
S'\x00\x00\x00\x00\x00\x00\x00\x00'
p318
tp319
Rp320
aI0
ag246
(g249
S'q\xf8\xcf_\xbb\x93\xc6?'
p321
tp322
Rp323
ag246
(g249
S'o\xfbk\xb9\xc3\xa4\xcd?'
p324
tp325
Rp326
ag246
(g249
S'\xac\xb7\x10\x18p\xd2\xd3?'
p327
tp328
Rp329
ag246
(g249
S'\x99WOm\xffk\xd3?'
p330
tp331
Rp332
ag246
(g249
S'Y\xea\x1aQ\xd8\xb7\xd8?'
p333
tp334
Rp335
ag246
(g249
S'\x7fK\x7f\x915\xd1\xd4?'
p336
tp337
Rp338
ag246
(g249
S'(\xe1\xc9\xc7\x83\xdd\xc9?'
p339
tp340
Rp341
ag246
(g249
S'\xcd;\x7ff\x9e\xa0\xc6?'
p342
tp343
Rp344
ag246
(g249
S'C\xb72\xa0\xb5F\xc1?'
p345
tp346
Rp347
ag246
(g249
S'I\x0c\xdf\t\xd3(\xc8?'
p348
tp349
Rp350
ag246
(g249
S'\xb9\xcel\\y\x94\xcf?'
p351
tp352
Rp353
ag246
(g249
S'\x19O\xd1K@4\xce?'
p354
tp355
Rp356
ag246
(g249
S'\xbd\xb1Z~\xcb\t\xce?'
p357
tp358
Rp359
ag246
(g249
S'c\xb0\x8aa\xa8\xde\xcc?'
p360
tp361
Rp362
ag246
(g249
S'\xa0s\x1d\x82\xf4\x9b\xc4?'
p363
tp364
Rp365
aI0
ag246
(g249
S'\xb3\x06\xb4\xdd\xe1:\xb8?'
p366
tp367
Rp368
ag246
(g249
S'\xc8\xf4x\xe1\xe3\xde\xd1?'
p369
tp370
Rp371
aI0
aI0
aI0
ag246
(g249
S'\x8c\xeb\x0b\xa7\x13\x81\xcb?'
p372
tp373
Rp374
aI0
ag246
(g249
S'\xf1\xd8\xa7\xe0\x05^\xca?'
p375
tp376
Rp377
ag246
(g249
S'\xac\xe8\x9c\xd0\x9f\x0f\xd2?'
p378
tp379
Rp380
ag246
(g249
S'\xc5Y\x8cP\xb2\xa8\xcd?'
p381
tp382
Rp383
ag246
(g249
S'\xe9\xd1\xf4{MP\xc2?'
p384
tp385
Rp386
ag246
(g249
S'\x1d^\x9e;\xe5\x1d\xb4?'
p387
tp388
Rp389
ag246
(g249
S'\x0bc\xffQ\x18\x1a\xe2?'
p390
tp391
Rp392
ag246
(g249
S'\xcd;\x7ff\x9e\xa0\xa6?'
p393
tp394
Rp395
ag246
(g249
S't\xa39g\x9fX\xd8?'
p396
tp397
Rp398
aI0
ag246
(g249
S'Q\xed~\x8f\xaa\xad\xdf?'
p399
tp400
Rp401
ag246
(g249
S'\xf0E\x96$\xc8>\xc9?'
p402
tp403
Rp404
ag246
(g249
S'\x1d3\x90E\xa7y\xa2?'
p405
tp406
Rp407
ag246
(g249
S'\xbaf\xdbp\xaf\x0f\xce?'
p408
tp409
Rp410
ag246
(g249
S'\x96\xfb\x02]\xbc\x06\xc0?'
p411
tp412
Rp413
ag246
(g249
S'\xbc%i\xa3|\xac\xca?'
p414
tp415
Rp416
ag246
(g249
S'\x0f+\x01\xe2\xaa\xe6\xcc?'
p417
tp418
Rp419
ag246
(g249
S'\tc\xffQ\x18\x1a\xa2?'
p420
tp421
Rp422
ag246
(g249
S'\x18\x95\x16\xb4\xd7"\xc8?'
p423
tp424
Rp425
aI0
ag246
(g249
S'\xb5\xf2q\x014\xa5\xca?'
p426
tp427
Rp428
ag246
(g249
S"\x8f\x14\xffz$'\xdb?"
p429
tp430
Rp431
ag246
(g249
S'U\xcd\x14+-\x1f\xcb?'
p432
tp433
Rp434
ag246
(g249
S':\xd8\xda~l=\xc1?'
p435
tp436
Rp437
ag246
(g249
S'a\xc8B\xb3\xbe8\xcd?'
p438
tp439
Rp440
ag246
(g249
S'\xe1%\xd0\x15\xcc^\xd8?'
p441
tp442
Rp443
ag246
(g249
S'"\n\xad\x86\x95+\xd6?'
p444
tp445
Rp446
ag246
(g249
S'N\xb4\x17\x88\xda\xfb\xd4?'
p447
tp448
Rp449
ag246
(g249
S"\x8f\x14\xffz$'\xdb?"
p450
tp451
Rp452
ag246
(g249
S'%\xb2_\xc5\xe7\x06\xd1?'
p453
tp454
Rp455
ag246
(g249
S'^bH\xae\xff\xf3\xc9?'
p456
tp457
Rp458
ag246
(g249
S'\xc1k!\x01\xd1\xe2\xd1?'
p459
tp460
Rp461
ag246
(g249
S"\x90\x14\xffz$'\xab?"
p462
tp463
Rp464
ag246
(g249
S'3\x7f\x88\x9fY\x12\xc3?'
p465
tp466
Rp467
ag246
(g249
S'8[\x0b\xd3\xab\xb3\x9f?'
p468
tp469
Rp470
ag246
(g249
S'\xa9\x1b\x0b,\xad*\xce?'
p471
tp472
Rp473
aI0
ag246
(g249
S'B@\x96\x17\\\xf8\xc7?'
p474
tp475
Rp476
ag246
(g249
S"\x90\x14\xffz$'\xcb?"
p477
tp478
Rp479
ag246
(g249
S'%y`(\xd2\x85\xda?'
p480
tp481
Rp482
ag246
(g249
S'\x95\x92\x8c\xf4\x16g\xc8?'
p483
tp484
Rp485
ag246
(g249
S'\xe7\xa2\x98\x8f\xde\xae\xc8?'
p486
tp487
Rp488
ag246
(g249
S'\x1c|@\xc2\xcc#\xc1?'
p489
tp490
Rp491
ag246
(g249
S'\x0bc\xffQ\x18\x1a\xd2?'
p492
tp493
Rp494
ag246
(g249
S'\xbb\n\xf9D\xf9.\xcb?'
p495
tp496
Rp497
aI0
ag246
(g249
S'\xf4\xb5J\xa7\xd8\xfe\xd3?'
p498
tp499
Rp500
aI0
ag246
(g249
S"\x08O\x9d4\x9f'\xb4?"
p501
tp502
Rp503
ag246
(g249
S'e\xfa\xfe\xdd}+\xae?'
p504
tp505
Rp506
ag246
(g249
S'\x00\x00\x00\x00\x00\x00\x00\x00'
p507
tp508
Rp509
ag246
(g249
S'\xaa`f\n\xa8\x82\xc7?'
p510
tp511
Rp512
aI0
ag246
(g249
S'\x00\x00\x00\x00\x00\x00\x00\x00'
p513
tp514
Rp515
ag246
(g249
S'\xa2\x1dmh\xc2\xab\xc1?'
p516
tp517
Rp518
ag246
(g249
S'\xa2\x8a\xa2EC\x0f\xb9?'
p519
tp520
Rp521
ag246
(g249
S'\x8f\x00,\x96\tw\xc1?'
p522
tp523
Rp524
ag246
(g249
S'\x07\x9c\x1a\x99d\xe3\xb5?'
p525
tp526
Rp527
ag246
(g249
S'\x0bc\xffQ\x18\x1a\xb2?'
p528
tp529
Rp530
ag246
(g249
S'kO?\\[]\xd4?'
p531
tp532
Rp533
ag246
(g249
S'\x0bc\xffQ\x18\x1a\xc2?'
p534
tp535
Rp536
aI0
ag246
(g249
S'\x9a\x99\x99\x99\x99\x99\xc9?'
p537
tp538
Rp539
ag246
(g249
S'\x00\x00\x00\x00\x00\x00\x00\x00'
p540
tp541
Rp542
ag246
(g249
S'6~\xd0X\x92Y\xc9?'
p543
tp544
Rp545
ag246
(g249
S"\xf8\xda5\x9d'7\xd6?"
p546
tp547
Rp548
ag246
(g249
S'a\x8f\xd5\xf1\xd7$\xd1?'
p549
tp550
Rp551
ag246
(g249
S'\xccR\x8au+\x7f\xdd?'
p552
tp553
Rp554
ag246
(g249
S'\x00\x00\x00\x00\x00\x00\x00\x00'
p555
tp556
Rp557
ag246
(g249
S'\xc4\x8fD\x8e\xc2U\xc5?'
p558
tp559
Rp560
ag246
(g249
S'\xdc\x14\xe8\xcb\xb5G\xcf?'
p561
tp562
Rp563
ag246
(g249
S'\xe4^rm\xf4\xdb\xdc?'
p564
tp565
Rp566
ag246
(g249
S'j\\\xa2\x9e\x99.\xc0?'
p567
tp568
Rp569
ag246
(g249
S'\x8e\x83\x12tQ\x1d\xc5?'
p570
tp571
Rp572
ag246
(g249
S"\x01\xb2\xeb'\xdfy\xc6?"
p573
tp574
Rp575
ag246
(g249
S'yX\xd5\x9d\xba*\xc6?'
p576
tp577
Rp578
aI0
ag246
(g249
S'\x8d\xcc\x94G\x9c\x14\xd5?'
p579
tp580
Rp581
ag246
(g249
S'2\xf0<\xf3\xfd\xe6\xa4?'
p582
tp583
Rp584
ag246
(g249
S'\x00\x00\x00\x00\x00\x00\x00\x00'
p585
tp586
Rp587
ag246
(g249
S'\nc\xffQ\x18\x1a\xc2?'
p588
tp589
Rp590
ag246
(g249
S'\xe6I\xe2{m\xb9\xd0?'
p591
tp592
Rp593
ag246
(g249
S'\x0bc\xffQ\x18\x1a\xb2?'
p594
tp595
Rp596
ag246
(g249
S'tO\xad\r9S\xc5?'
p597
tp598
Rp599
ag246
(g249
S'\x86\xdb&\x8c\xea\xa3\xc7?'
p600
tp601
Rp602
ag246
(g249
S'yC\xc6\x8c\xa0\xba\xb6?'
p603
tp604
Rp605
ag246
(g249
S'\xd7,\x7f\x1c\x00\xa6\xcf?'
p606
tp607
Rp608
ag246
(g249
S'\xe1O\rtN\x01\xe0?'
p609
tp610
Rp611
ag246
(g249
S'"\xa9\x9e\xb2\xf3)\xd2?'
p612
tp613
Rp614
ag246
(g249
S'\xc2OC\xa4\xcdM\xd0?'
p615
tp616
Rp617
ag246
(g249
S'\x11N\x8d\x1f\x91#\xc4?'
p618
tp619
Rp620
ag246
(g249
S'\xb2\xb8\x8b\x14\xc1\xcd\xc6?'
p621
tp622
Rp623
ag246
(g249
S'\xff\x90\xa6\x0b\xecG\xc7?'
p624
tp625
Rp626
ag246
(g249
S'\xf2\xec\x07\xa0"X\xc9?'
p627
tp628
Rp629
ag246
(g249
S"\x8f\x14\xffz$'\xdb?"
p630
tp631
Rp632
ag246
(g249
S'\xf1,k\xb4%&\xc2?'
p633
tp634
Rp635
aI0
ag246
(g249
S'\xfb\xd2\x8f\xd5\x7f6\xc2?'
p636
tp637
Rp638
ag246
(g249
S"X\x14\xaf'`\xdc\xe0?"
p639
tp640
Rp641
ag246
(g249
S'\x00\x00\x00\x00\x00\x00\x00\x00'
p642
tp643
Rp644
ag246
(g249
S'\xa8\xbbm\xfd\xe2B\xc9?'
p645
tp646
Rp647
ag246
(g249
S'WAe\xeb\xc0I\xc9?'
p648
tp649
Rp650
ag246
(g249
S'\xc2\xea,>\xf7F\xd5?'
p651
tp652
Rp653
ag246
(g249
S'Z\xfdH\xb5+\x8d\xd1?'
p654
tp655
Rp656
ag246
(g249
S'y\x07\x7f,Q\xa9\xbc?'
p657
tp658
Rp659
ag246
(g249
S"w\x04x>A'\xc0?"
p660
tp661
Rp662
ag246
(g249
S'\xcd;\x7ff\x9e\xa0\xc6?'
p663
tp664
Rp665
ag246
(g249
S'\x00\x00\x00\x00\x00\x00\x00\x00'
p666
tp667
Rp668
ag246
(g249
S'9}G\xe41O\xc0?'
p669
tp670
Rp671
ag246
(g249
S'$3F\x1b\x89\xf0\xe2?'
p672
tp673
Rp674
ag246
(g249
S'\x9cE_\xe1\xfc~\xe5?'
p675
tp676
Rp677
ag246
(g249
S'\x84mZ\xee\x1b\x0b\xcc?'
p678
tp679
Rp680
ag246
(g249
S'\x08d\xda6a\xce\xd1?'
p681
tp682
Rp683
ag246
(g249
S'\xcd;\x7ff\x9e\xa0\xd6?'
p684
tp685
Rp686
ag246
(g249
S'"\xd6{\x0c\xbdj\xda?'
p687
tp688
Rp689
ag246
(g249
S'^)\xf5\x02\xa7\x1c\xc9?'
p690
tp691
Rp692
aI0
aI0
ag246
(g249
S'\xe0;n\xcf1\x9f\x9d?'
p693
tp694
Rp695
ag246
(g249
S'\xb4\xe6?\xdei\xfd\xd5?'
p696
tp697
Rp698
ag246
(g249
S'\xf5\\\xa70eS\xd2?'
p699
tp700
Rp701
ag246
(g249
S'\xbfX\xcfL\xf1o\xc8?'
p702
tp703
Rp704
ag246
(g249
S'\xb7\x1dh\xd2e\x0c\xd2?'
p705
tp706
Rp707
aI0
ag246
(g249
S'\xd9\x1c?\xb5\x902\xca?'
p708
tp709
Rp710
ag246
(g249
S'P\x16\x0f\x05b&\xd3?'
p711
tp712
Rp713
ag246
(g249
S'\x1d3\x90E\xa7y\xc2?'
p714
tp715
Rp716
ag246
(g249
S']\x0c\xbeg\xafZ\xc6?'
p717
tp718
Rp719
ag246
(g249
S'\x1b\xc9\xa3\x02\x0e\x12\xce?'
p720
tp721
Rp722
ag246
(g249
S'\xccL*\xed\t\xe9\xd0?'
p723
tp724
Rp725
ag246
(g249
S'\x00\x00\x00\x00\x00\x00\x00\x00'
p726
tp727
Rp728
aF0.36666666666666664
aF0.2
aF0.3927083333333334
aF0.7214285714285715
aF0.5
aF0.5510504201680673
aF0.38749999999999996
aF0.33214285714285713
aF0.6737373737373736
aF0.6
aF0.9
aF0.0
aF0.1
aF0.0
aF0.28928571428571426
aF0.4011363636363636
aF0.5181818181818182
aF0.591111111111111
aF0.7
aF0.0
aF0.2888888888888889
aF0.4583333333333333
aF0.37232620320855614
aF0.6140859140859142
aF0.6257142857142857
aF0.0
aF0.0
aF0.7
aF0.7833333333333333
aF0.3875
aF0.72
aF0.4125
aF0.7
aF0.4725
aF0.30000000000000004
aF0.625
aF0.3886731786731787
aF0.3
aF0.525625
aF0.36240079365079364
aF0.7048611111111112
aF0.48125
aF0.49244444444444446
aF0.6
aF0.74
aF0.49187635281385284
aF0.0
aF0.6
aF0.775
aF0.5056818181818181
aF0.2
aF0.722063492063492
aF0.55
aF0.5441017316017317
aF0.7808035714285714
aF0.3572916666666667
aF0.75
aF0.255
aF0.6622549019607843
aF0.3666666666666667
aF0.7000000000000001
aF0.3808773058773058
aF0.3
aF0.603125
aF0.4127510822510822
aF0.5
aF0.47288797061524335
aF0.55
aF0.46564625850340136
aF0.0
aF0.8
aF0.39999999999999997
aF0.5904761904761905
aF0.45238095238095233
aF0.3750631313131313
aF0.5964912280701754
aF0.5499999999999999
aF0.575
aF0.7
aF0.6159090909090909
aF0.45
aF0.667142857142857
aF1.0
aF0.5928571428571429
aF0.4636363636363636
aF0.6383986928104575
aF0.5
aF0.557120811287478
aF0.7
aF0.6148478835978837
aF0.4833778966131907
aF0.5693181818181817
aF0.725
aF0.8
aF0.7083333333333334
aF0.375
aF0.6553571428571429
aF0.0
aF0.45454545454545453
aF0.625
aF0.0
aF0.5722222222222221
aF0.0
aF0.0
aF0.42857142857142855
aF0.3633333333333334
aF0.4474195075757575
aF0.5439285714285714
aF0.65
aF0.7000000000000001
aF0.2875
aF0.3
aF0.38333333333333336
aF0.0
aF0.49166666666666664
aF0.4792207792207792
aF0.513741740715425
aF0.729761904761905
aF0.0
aF0.31875
aF0.4575396825396825
aF0.6125
aF0.6515151515151515
aF0.5341269841269841
aF0.4800000000000001
aF0.48590909090909096
aF0.0
aF0.720995670995671
aF0.3333333333333333
aF0.0
aF0.475
aF0.3146666666666667
aF0.475
aF0.2977777777777778
aF0.4669642857142857
aF0.3666666666666667
aF0.46875
aF0.5479166666666666
aF0.5055555555555555
aF0.5349999999999999
aF0.4250236742424243
aF0.40997474747474744
aF0.6022727272727273
aF0.48055555555555557
aF0.8
aF0.4428571428571428
aF0.0625
aF0.45727018079959253
aF0.7222222222222222
aF0.1
aF0.43603896103896095
aF0.385
aF0.5273809523809524
aF0.4916666666666667
aF0.43666666666666665
aF0.45999999999999996
aF0.25
aF1.0
aF0.4126543209876543
aF0.9333333333333333
aF0.775
aF0.7875
aF0.4463961038961039
aF0.5
aF0.48769841269841274
aF0.34178030303030305
aF0.0
aF1.0
aF0.2666666666666667
aF0.4888888888888889
aF0.5370089786756453
aF0.5642413003663004
aF0.3547619047619048
aF0.5
aF0.603125
aF0.6057539682539682
aF0.25
aF0.43333333333333335
aF0.44381914381914384
aF0.5108385441718776
aF0.4
ag246
(g249
S'\x1ep\x7f\xa0\xeb\x97\xd0?'
p729
tp730
Rp731
ag246
(g249
S'\x0bc\xffQ\x18\x1a\xc2?'
p732
tp733
Rp734
ag246
(g249
S'\x0f\x87\xe0\x87\xb5\x94\xcc?'
p735
tp736
Rp737
ag246
(g249
S'&\x94\x91a\x92 \xdb?'
p738
tp739
Rp740
ag246
(g249
S'\x8e \xb0\te\x8d\xd3?'
p741
tp742
Rp743
ag246
(g249
S'\xe8_\xbc%oz\xcd?'
p744
tp745
Rp746
ag246
(g249
S'Y\xe5\xb5\x85e\xae\xcc?'
p747
tp748
Rp749
ag246
(g249
S'\x85&\x94\xdfW\xe3\xc8?'
p750
tp751
Rp752
ag246
(g249
S'\x1a\xddt\xa7\x92,\xd9?'
p753
tp754
Rp755
ag246
(g249
S'C\x11\xc8\r\x15\xaf\xd6?'
p756
tp757
Rp758
aI0
ag246
(g249
S'\x00\x00\x00\x00\x00\x00\x00\x00'
p759
tp760
Rp761
ag246
(g249
S'r:\xa0N\xdc0\xa0?'
p762
tp763
Rp764
ag246
(g249
S'\x00\x00\x00\x00\x00\x00\x00\x00'
p765
tp766
Rp767
ag246
(g249
S'\xc4\x90\xab\x0b7\xec\xc4?'
p768
tp769
Rp770
ag246
(g249
S'\x80\x9e\n\x88b\x08\xce?'
p771
tp772
Rp773
ag246
(g249
S'\x89\x8a\xd6aQ\x99\xd5?'
p774
tp775
Rp776
ag246
(g249
S'}\x86Jk@\xcb\xc9?'
p777
tp778
Rp779
ag246
(g249
S'\xae\xc1\n\xbd\xc6>\xde?'
p780
tp781
Rp782
aI0
aI0
ag246
(g249
S'\xcd;\x7ff\x9e\xa0\xa6?'
p783
tp784
Rp785
ag246
(g249
S'\xceo\x1f\x1b\xbe\x83\xd3?'
p786
tp787
Rp788
ag246
(g249
S'\xdd\xd1a>\x0f\x86\xce?'
p789
tp790
Rp791
ag246
(g249
S"\xd1.\\\xb8I'\xdc?"
p792
tp793
Rp794
aI0
ag246
(g249
S'\x00\x00\x00\x00\x00\x00\x00\x00'
p795
tp796
Rp797
aI0
ag246
(g249
S'c~\xcf\xae\xd6\xea\xdb?'
p798
tp799
Rp800
ag246
(g249
S'PO\xd8S\xa9F\xc4?'
p801
tp802
Rp803
ag246
(g249
S'u\xb9eh)p\xda?'
p804
tp805
Rp806
ag246
(g249
S'\xe2H\xff\xb4q\x1e\xb5?'
p807
tp808
Rp809
ag246
(g249
S'\xae\xc1\n\xbd\xc6>\xde?'
p810
tp811
Rp812
ag246
(g249
S'\xa4\x10?\xb0\xfe\x9a\xcb?'
p813
tp814
Rp815
ag246
(g249
S'\x87\xc5\xb6\xee\x12\xc0\xd2?'
p816
tp817
Rp818
ag246
(g249
S'\xc0\n\x1f\x00\xc6H\xdc?'
p819
tp820
Rp821
ag246
(g249
S'~3,\x9c\xac\x18\xd0?'
p822
tp823
Rp824
ag246
(g249
S'-\xeb\xcc!\xad\x8b\xd5?'
p825
tp826
Rp827
ag246
(g249
S'\xa9_\x9ec\xeb\xf9\xd4?'
p828
tp829
Rp830
ag246
(g249
S'\x9a\xd7.\xf5d\xb8\xc7?'
p831
tp832
Rp833
ag246
(g249
S'\xb8\x0e\xfc\xa1\xb0 \xd2?'
p834
tp835
Rp836
ag246
(g249
S'\x00\xfdh\x1e\x1bx\xd4?'
p837
tp838
Rp839
ag246
(g249
S'\xd78\x18A\x03b\xd1?'
p840
tp841
Rp842
aI0
ag246
(g249
S'h\x8c\xb4U%>\xdc?'
p843
tp844
Rp845
ag246
(g249
S'\xee\xcd6T\xb8[\xd4?'
p846
tp847
Rp848
aI0
aI0
aI0
ag246
(g249
S'\x83\xc2\x92U\x90\xb8\xce?'
p849
tp850
Rp851
aI0
ag246
(g249
S']s*\x03n5\xd6?'
p852
tp853
Rp854
ag246
(g249
S'J\x0c\xdf\t\xd3(\xd8?'
p855
tp856
Rp857
ag246
(g249
S'b\xcd\xff\x83\xf8p\xc4?'
p858
tp859
Rp860
ag246
(g249
S'W\x83Ol]\xde\xdb?'
p861
tp862
Rp863
ag246
(g249
S'-\x15x\xbd6\x99\xd1?'
p864
tp865
Rp866
ag246
(g249
S'\xd9l\xdf\xccv\xf8\xe0?'
p867
tp868
Rp869
ag246
(g249
S'\xd8\x05\xaf\xc2\x96\xd9\xcc?'
p870
tp871
Rp872
ag246
(g249
S'\xb5\xbc[\x9d\x0e\xc0\xd3?'
p873
tp874
Rp875
aI0
ag246
(g249
S'kO?\\[]\xd4?'
p876
tp877
Rp878
ag246
(g249
S'\x1eu\xb1\x18\x1ax\xbc?'
p879
tp880
Rp881
ag246
(g249
S'(\xe1\xc9\xc7\x83\xdd\xc9?'
p882
tp883
Rp884
ag246
(g249
S'm\xd8Oj\xb29\xcc?'
p885
tp886
Rp887
ag246
(g249
S'\x95g\x04\xd7\xcd\xac\xcb?'
p888
tp889
Rp890
ag246
(g249
S'\x8e \xb0\te\x8d\xd3?'
p891
tp892
Rp893
ag246
(g249
S'M\x99f\xa0?\x00\xd5?'
p894
tp895
Rp896
ag246
(g249
S'.(\xbfp\xe1\xe3\xd8?'
p897
tp898
Rp899
ag246
(g249
S'>y\xba\xed\xf0\xea\xd2?'
p900
tp901
Rp902
aI0
ag246
(g249
S'.\xb8\xe6\x08r\x8f\xdd?'
p903
tp904
Rp905
ag246
(g249
S"\x8e\x14\xffz$'\xdb?"
p906
tp907
Rp908
ag246
(g249
S'\xda\xbb\x0c\xee\x02t\xd8?'
p909
tp910
Rp911
ag246
(g249
S'\xc5\xe0\xa3\xd6\xf0x\xd4?'
p912
tp913
Rp914
ag246
(g249
S'\x83bW\xd1\xe1\xd1\xd2?'
p915
tp916
Rp917
ag246
(g249
S"\xa2'70U9\xdb?"
p918
tp919
Rp920
ag246
(g249
S'NO\xd8S\xa9F\xd4?'
p921
tp922
Rp923
ag246
(g249
S'\x83\x13\x19$\xa8\xbb\xdd?'
p924
tp925
Rp926
ag246
(g249
S'Q\xed~\x8f\xaa\xad\xdf?'
p927
tp928
Rp929
ag246
(g249
S'\x85V?\xc5T\xdb\xdc?'
p930
tp931
Rp932
ag246
(g249
S'U\xfa\xdb\x87\xcc\xee\xd0?'
p933
tp934
Rp935
ag246
(g249
S'\xd7m8\xef\xc3l\xd6?'
p936
tp937
Rp938
ag246
(g249
S'\xcd;\x7ff\x9e\xa0\xe6?'
p939
tp940
Rp941
ag246
(g249
S'\x81`\xd1\x0bd\xd4\xda?'
p942
tp943
Rp944
ag246
(g249
S'x\x9e\x10\xa4\xbf\x81\xc9?'
p945
tp946
Rp947
ag246
(g249
S'g\xdb\ta#\xd7\xc1?'
p948
tp949
Rp950
aI0
ag246
(g249
S'`U\xb4\xb3G\xc3\xd0?'
p951
tp952
Rp953
ag246
(g249
S'Q\xed~\x8f\xaa\xad\xdf?'
p954
tp955
Rp956
ag246
(g249
S'\xc9 \xce\xed)w\xcf?'
p957
tp958
Rp959
ag246
(g249
S'-r\xb8\r\xc3l\xd5?'
p960
tp961
Rp962
ag246
(g249
S'c\x19A\x0c5m\xd3?'
p963
tp964
Rp965
ag246
(g249
S'7\xb1\xeb\x97\x91[\xd4?'
p966
tp967
Rp968
ag246
(g249
S'\x0bc\xffQ\x18\x1a\xe2?'
p969
tp970
Rp971
ag246
(g249
S'\xae\x14G\x16\xaa\xa9\xc5?'
p972
tp973
Rp974
aI0
ag246
(g249
S'\xdc\x1aA\xaa\r\xe2\xd8?'
p975
tp976
Rp977
aI0
ag246
(g249
S'1\x17\x83V\xaf\xcb\xd0?'
p978
tp979
Rp980
ag246
(g249
S'\xc0\n\x1f\x00\xc6H\xcc?'
p981
tp982
Rp983
ag246
(g249
S'\x00\x00\x00\x00\x00\x00\x00\x00'
p984
tp985
Rp986
ag246
(g249
S'k=\xe4\x81\x90\xb2\xda?'
p987
tp988
Rp989
aI0
ag246
(g249
S'\x00\x00\x00\x00\x00\x00\x00\x00'
p990
tp991
Rp992
ag246
(g249
S'A3\xb6\x0e\x1ae\xd3?'
p993
tp994
Rp995
ag246
(g249
S'\xc0"9^\xc3W\xca?'
p996
tp997
Rp998
ag246
(g249
S'S\xf1/\xfe_\xb9\xd2?'
p999
tp1000
Rp1001
ag246
(g249
S'\xa0\xef\xf8\x84)\xda\xd6?'
p1002
tp1003
Rp1004
ag246
(g249
S'R\xed~\x8f\xaa\xad\xdf?'
p1005
tp1006
Rp1007
ag246
(g249
S'kO?\\[]\xd4?'
p1008
tp1009
Rp1010
ag246
(g249
S'Q\xed~\x8f\xaa\xad\xbf?'
p1011
tp1012
Rp1013
aI0
ag246
(g249
S'\x89\x88\x88\x88\x88\x88\xd8?'
p1014
tp1015
Rp1016
ag246
(g249
S'\x00\x00\x00\x00\x00\x00\x00\x00'
p1017
tp1018
Rp1019
ag246
(g249
S'\x05\xa7`\x05\x80i\xd4?'
p1020
tp1021
Rp1022
ag246
(g249
S'\xbdK\xe4\xd4\xc7\xcf\xd1?'
p1023
tp1024
Rp1025
ag246
(g249
S'\x8fG\xb9f!\xa4\xd7?'
p1026
tp1027
Rp1028
ag246
(g249
S'\x97\xfb\xca\xcd,6\xd4?'
p1029
tp1030
Rp1031
ag246
(g249
S'\x00\x00\x00\x00\x00\x00\x00\x00'
p1032
tp1033
Rp1034
ag246
(g249
S'\xe4\x07\x91\xa3\xf4u\xc6?'
p1035
tp1036
Rp1037
ag246
(g249
S'\n\xf5\x92\x9fd\xe1\xd6?'
p1038
tp1039
Rp1040
ag246
(g249
S'\xc2\xdf\x02\xa5q\xa5\xd6?'
p1041
tp1042
Rp1043
ag246
(g249
S'\xe3.90\xf5{\xdd?'
p1044
tp1045
Rp1046
ag246
(g249
S'o\xcb\xc7[\xe6\xdd\xdd?'
p1047
tp1048
Rp1049
ag246
(g249
S'fEX9\xe5\xb3\xd6?'
p1050
tp1051
Rp1052
ag246
(g249
S'\x1a"\x7fvn\x8f\xd2?'
p1053
tp1054
Rp1055
aI0
ag246
(g249
S'/\xaf\xe0r<\xff\xda?'
p1056
tp1057
Rp1058
ag246
(g249
S'\x84F\xfb\\\xd5\xcf\xcc?'
p1059
tp1060
Rp1061
ag246
(g249
S'\x00\x00\x00\x00\x00\x00\x00\x00'
p1062
tp1063
Rp1064
ag246
(g249
S'\xc2.\xff\x17\xcb"\x98?'
p1065
tp1066
Rp1067
ag246
(g249
S"\xf4m.\xd3a'\xcf?"
p1068
tp1069
Rp1070
ag246
(g249
S'\x9cE_\xe1\xfc~\xd5?'
p1071
tp1072
Rp1073
ag246
(g249
S'\xddcn\x07\xde\x00\xd5?'
p1074
tp1075
Rp1076
ag246
(g249
S'\x9b9}\x89\x08\x9d\xd0?'
p1077
tp1078
Rp1079
ag246
(g249
S'\xd6\xb8\xec\xbf\xdc{\xcf?'
p1080
tp1081
Rp1082
ag246
(g249
S'\x13\xd6\xe7\xf0\xc3\x1a\xd2?'
p1083
tp1084
Rp1085
ag246
(g249
S'\xf6\x1b\xe1\xc8_I\xc6?'
p1086
tp1087
Rp1088
ag246
(g249
S'\xc6\r\x9e\x9c\x85U\xd8?'
p1089
tp1090
Rp1091
ag246
(g249
S'X\xe9\xc8\x1aS \xd4?'
p1092
tp1093
Rp1094
ag246
(g249
S'\x18x\x1b\xbe\xfd0\xcd?'
p1095
tp1096
Rp1097
ag246
(g249
S'2F%\x8fGE\xce?'
p1098
tp1099
Rp1100
ag246
(g249
S'\xeeZ\xb5\xe5\x80\xbe\xd9?'
p1101
tp1102
Rp1103
ag246
(g249
S'4\xcb\xb4eq\x02\xc5?'
p1104
tp1105
Rp1106
ag246
(g249
S'\x0bc\xffQ\x18\x1a\xe2?'
p1107
tp1108
Rp1109
ag246
(g249
S'\x15\x82q\x10\xe2\xd6\xcb?'
p1110
tp1111
Rp1112
aI0
ag246
(g249
S'%\xd2o\x99"z\xd4?'
p1113
tp1114
Rp1115
ag246
(g249
S'\x93\xd3\\\x16/M\xda?'
p1116
tp1117
Rp1118
ag246
(g249
S'\x0bc\xffQ\x18\x1a\xb2?'
p1119
tp1120
Rp1121
ag246
(g249
S'kl\xdc\x85\xd4\xe2\xd0?'
p1122
tp1123
Rp1124
ag246
(g249
S'\x17]N\xa2\xef\xc0\xd1?'
p1125
tp1126
Rp1127
ag246
(g249
S'a\xcc\x94\x8b\xdc;\xc6?'
p1128
tp1129
Rp1130
ag246
(g249
S'\xed\xfe\xa3\x85\xd3\xfb\xd1?'
p1131
tp1132
Rp1133
ag246
(g249
S'\xf1m\xbfhH\xd8\xc0?'
p1134
tp1135
Rp1136
ag246
(g249
S'0\x18\x95G\xcf$\xd2?'
p1137
tp1138
Rp1139
ag246
(g249
S'\xcd;\x7ff\x9e\xa0\xc6?'
p1140
tp1141
Rp1142
ag246
(g249
S'\x1d3\x90E\xa7y\xe2?'
p1143
tp1144
Rp1145
ag246
(g249
S'\xa3\xe8\x86)\xdc\xa7\xc3?'
p1146
tp1147
Rp1148
ag246
(g249
S';y\\\xccJn\xab?'
p1149
tp1150
Rp1151
ag246
(g249
S'kO?\\[]\xd4?'
p1152
tp1153
Rp1154
ag246
(g249
S'\x06e=\xc7\xea\x8a\xda?'
p1155
tp1156
Rp1157
ag246
(g249
S'O\xc4\xe7\xcf\xeei\xd2?'
p1158
tp1159
Rp1160
ag246
(g249
S'\xcd;\x7ff\x9e\xa0\xd6?'
p1161
tp1162
Rp1163
ag246
(g249
S'1:\xb9N}x\xd6?'
p1164
tp1165
Rp1166
ag246
(g249
S'\x92o\x12K\xefV\xd0?'
p1167
tp1168
Rp1169
aI0
aI0
ag246
(g249
S'\xa8``\xf8\xe1\xa0\xd0?'
p1170
tp1171
Rp1172
ag246
(g249
S'\xec\x89\x18>\x04Z\xd2?'
p1173
tp1174
Rp1175
ag246
(g249
S"\x970\x98'\xbb3\xd6?"
p1176
tp1177
Rp1178
ag246
(g249
S'$\x99\xb4<\xff\xe0\xd4?'
p1179
tp1180
Rp1181
ag246
(g249
S'\xc6\xd3A\x93\x8f]\xd0?'
p1182
tp1183
Rp1184
aI0
ag246
(g249
S'\x92G\xbf\xc6\x0fE\xc5?'
p1185
tp1186
Rp1187
ag246
(g249
S'\xcb\x80F\\7}\xd8?'
p1188
tp1189
Rp1190
ag246
(g249
S'\x1d3\x90E\xa7y\xc2?'
p1191
tp1192
Rp1193
ag246
(g249
S'p\xe9\xc1\xc9\xc7\x1d\xcc?'
p1194
tp1195
Rp1196
ag246
(g249
S'\xdaG\xdbY\n\x88\xce?'
p1197
tp1198
Rp1199
ag246
(g249
S'\x0eXIRz\xe1\xd0?'
p1200
tp1201
Rp1202
ag246
(g249
S'.\xb8\xe6\x08r\x8f\xcd?'
p1203
tp1204
Rp1205
ag246
(g249
S'\xba\xbb\xbb\xbb\xbb\xbb\xdb?'
p1206
tp1207
Rp1208
ag246
(g249
S'\x9a\x99\x99\x99\x99\x99\xc9?'
p1209
tp1210
Rp1211
ag246
(g249
S'\x00\x00\x00\x00\x00\x00\xe0?'
p1212
tp1213
Rp1214
ag246
(g249
S'\xea\xa0\x0e\xea\xa0\x0e\xea?'
p1215
tp1216
Rp1217
ag246
(g249
S'\x9a\x99\x99\x99\x99\x99\xd9?'
p1218
tp1219
Rp1220
ag246
(g249
S'ffffff\xe6?'
p1221
tp1222
Rp1223
ag246
(g249
S'333333\xc3?'
p1224
tp1225
Rp1226
ag246
(g249
S'\xb6m\xdb\xb6m\xdb\xd6?'
p1227
tp1228
Rp1229
ag246
(g249
S'\xd87\xac}\xc3\xda\xc7?'
p1230
tp1231
Rp1232
ag246
(g249
S'\x00\x00\x00\x00\x00\x00\xf4?'
p1233
tp1234
Rp1235
aI0
ag246
(g249
S'\x00\x00\x00\x00\x00\x00\x00\x00'
p1236
tp1237
Rp1238
ag246
(g249
S'\x00\x00\x00\x00\x00\x00\x00\x00'
p1239
tp1240
Rp1241
ag246
(g249
S'\x00\x00\x00\x00\x00\x00\x00\x00'
p1242
tp1243
Rp1244
ag246
(g249
S'z\x14\xaeG\xe1z\xa4?'
p1245
tp1246
Rp1247
ag246
(g249
S'-\xba\xe8\xa2\x8b.\xca?'
p1248
tp1249
Rp1250
ag246
(g249
S'\x86\xb5oX\xfb\x86\xc5?'
p1251
tp1252
Rp1253
ag246
(g249
S'\n\xd7\xa3p=\n\xe3?'
p1254
tp1255
Rp1256
ag246
(g249
S'\x99\x99\x99\x99\x99\x99\xe9?'
p1257
tp1258
Rp1259
aI0
aI0
ag246
(g249
S'\x00\x00\x00\x00\x00\x00\xe2?'
p1260
tp1261
Rp1262
ag246
(g249
S'ffffff\xf6?'
p1263
tp1264
Rp1265
ag246
(g249
S'\xcd\xcc\xcc\xcc\xcc\xcc\xec?'
p1266
tp1267
Rp1268
ag246
(g249
S'\xba\x94K\xb9\x94K\xd9?'
p1269
tp1270
Rp1271
aI0
ag246
(g249
S'\x00\x00\x00\x00\x00\x00\x00\x00'
p1272
tp1273
Rp1274
aI0
ag246
(g249
S'\x9b\x99\x99\x99\x99\x99\xd9?'
p1275
tp1276
Rp1277
ag246
(g249
S'\xbb\xbb\xbb\xbb\xbb\xbb\xdb?'
p1278
tp1279
Rp1280
ag246
(g249
S'""""""\xe2?'
p1281
tp1282
Rp1283
ag246
(g249
S'xwwwww\xdb?'
p1284
tp1285
Rp1286
ag246
(g249
S'\x99\x99\x99\x99\x99\x99\xe9?'
p1287
tp1288
Rp1289
ag246
(g249
S'q=\n\xd7\xa3p\xdd?'
p1290
tp1291
Rp1292
ag246
(g249
S'ffffff\xd6?'
p1293
tp1294
Rp1295
ag246
(g249
S'\x00\x00\x00\x00\x00\x00\xd0?'
p1296
tp1297
Rp1298
ag246
(g249
S'\x88M\xa5!\xe7>\xdb?'
p1299
tp1300
Rp1301
ag246
(g249
S'\x9a\x99\x99\x99\x99\x99\xd9?'
p1302
tp1303
Rp1304
ag246
(g249
S'[\xb0\x05[\xb0\x05\xf3?'
p1305
tp1306
Rp1307
ag246
(g249
S'333333\xe3?'
p1308
tp1309
Rp1310
ag246
(g249
S'\x00\x00\x00\x00\x00\x00\xe7?'
p1311
tp1312
Rp1313
ag246
(g249
S'333333\xe7?'
p1314
tp1315
Rp1316
ag246
(g249
S'\xcd\xcc\xcc\xcc\xcc\xcc\xdc?'
p1317
tp1318
Rp1319
aI0
ag246
(g249
S'\x9a\x99\x99\x99\x99\x99\xc9?'
p1320
tp1321
Rp1322
ag246
(g249
S'333333\xef?'
p1323
tp1324
Rp1325
aI0
aI0
aI0
ag246
(g249
S'\xde\xdd\xdd\xdd\xdd\xdd\xe1?'
p1326
tp1327
Rp1328
aI0
ag246
(g249
S'\x00\x00\x00\x00\x00\x00\xe0?'
p1329
tp1330
Rp1331
ag246
(g249
S'\xcd\xcc\xcc\xcc\xcc\xcc\xe4?'
p1332
tp1333
Rp1334
ag246
(g249
S'\x95 O\t\xf2\x94\xe0?'
p1335
tp1336
Rp1337
ag246
(g249
S'\x92$I\x92$I\xd2?'
p1338
tp1339
Rp1340
ag246
(g249
S'\xd8\xa3p=\n\xd7\xc3?'
p1341
tp1342
Rp1343
ag246
(g249
S'\x9a\x99\x99\x99\x99\x99\xe9?'
p1344
tp1345
Rp1346
ag246
(g249
S'\x00\x00\x00\x00\x00\x00\xb0?'
p1347
tp1348
Rp1349
ag246
(g249
S'\xee\xee\xee\xee\xee\xee\xf2?'
p1350
tp1351
Rp1352
aI0
ag246
(g249
S'ffffff\xe6?'
p1353
tp1354
Rp1355
ag246
(g249
S'\x00\x00\x00\x00\x00\x00\xe8?'
p1356
tp1357
Rp1358
ag246
(g249
S'\x00\x00\x00\x00\x00\x00\xb0?'
p1359
tp1360
Rp1361
ag246
(g249
S'\x99\x99\x99\x99\x99\x99\xe1?'
p1362
tp1363
Rp1364
ag246
(g249
S'\x10\x11\x11\x11\x11\x11\xe1?'
p1365
tp1366
Rp1367
ag246
(g249
S'\xab\xaa\xaa\xaa\xaa\xaa\xda?'
p1368
tp1369
Rp1370
ag246
(g249
S'\x00\x00\x00\x00\x00\x00\xe0?'
p1371
tp1372
Rp1373
ag246
(g249
S'\x98\x99\x99\x99\x99\x99\xa9?'
p1374
tp1375
Rp1376
ag246
(g249
S'ffffff\xde?'
p1377
tp1378
Rp1379
aI0
ag246
(g249
S'\x99\x99\x99\x99\x99\x99\xd9?'
p1380
tp1381
Rp1382
ag246
(g249
S'333333\xe3?'
p1383
tp1384
Rp1385
ag246
(g249
S'333333\xe3?'
p1386
tp1387
Rp1388
ag246
(g249
S'\x18\x86a\x18\x86a\xc8?'
p1389
tp1390
Rp1391
ag246
(g249
S'\xa5O\xfa\xa4O\xfa\xea?'
p1392
tp1393
Rp1394
ag246
(g249
S'\x9a\x99\x99\x99\x99\x99\xf9?'
p1395
tp1396
Rp1397
ag246
(g249
S'333333\xe3?'
p1398
tp1399
Rp1400
ag246
(g249
S'\xce\xcc\xcc\xcc\xcc\xcc\xe4?'
p1401
tp1402
Rp1403
ag246
(g249
S'333333\xe3?'
p1404
tp1405
Rp1406
ag246
(g249
S'DDDDDD\xe4?'
p1407
tp1408
Rp1409
ag246
(g249
S'\xcd\xcc\xcc\xcc\xcc\xcc\xe4?'
p1410
tp1411
Rp1412
ag246
(g249
S'\x82\x138\x81\x138\xe1?'
p1413
tp1414
Rp1415
ag246
(g249
S'433333\xb3?'
p1416
tp1417
Rp1418
ag246
(g249
S'\x8a\xaf\xf8\x8a\xaf\xf8\xca?'
p1419
tp1420
Rp1421
ag246
(g249
S'j\x03\x9d6\xd0i\xb3?'
p1422
tp1423
Rp1424
ag246
(g249
S'\xcd\xcc\xcc\xcc\xcc\xcc\xe8?'
p1425
tp1426
Rp1427
aI0
ag246
(g249
S'=\xcf\xf3<\xcf\xf3\xe6?'
p1428
tp1429
Rp1430
ag246
(g249
S'433333\xd3?'
p1431
tp1432
Rp1433
ag246
(g249
S'\xec\xc7~\xec\xc7~\xec?'
p1434
tp1435
Rp1436
ag246
(g249
S'\x00\x00\x00\x00\x00\x00\xe6?'
p1437
tp1438
Rp1439
ag246
(g249
S'\xcd\xcc\xcc\xcc\xcc\xcc\xdc?'
p1440
tp1441
Rp1442
ag246
(g249
S'\xcd\xcc\xcc\xcc\xcc\xcc\xd4?'
p1443
tp1444
Rp1445
ag246
(g249
S'\x9a\x99\x99\x99\x99\x99\xd9?'
p1446
tp1447
Rp1448
ag246
(g249
S'\xf7\x12\xdaKh/\xd9?'
p1449
tp1450
Rp1451
aI0
ag246
(g249
S'\x9a\x99\x99\x99\x99\x99\xe9?'
p1452
tp1453
Rp1454
aI0
ag246
(g249
S't\xd1E\x17]t\xc1?'
p1455
tp1456
Rp1457
ag246
(g249
S'UUUUUU\xc5?'
p1458
tp1459
Rp1460
ag246
(g249
S'\x00\x00\x00\x00\x00\x00\x00\x00'
p1461
tp1462
Rp1463
ag246
(g249
S'\x00\x00\x00\x00\x00\x00\xe8?'
p1464
tp1465
Rp1466
aI0
ag246
(g249
S'\x00\x00\x00\x00\x00\x00\x00\x00'
p1467
tp1468
Rp1469
ag246
(g249
S'\xd9\x8f\xfd\xd8\x8f\xfd\xc8?'
p1470
tp1471
Rp1472
ag246
(g249
S'\xab\xaa\xaa\xaa\xaa\xaa\xda?'
p1473
tp1474
Rp1475
ag246
(g249
S'ffffff\xe2?'
p1476
tp1477
Rp1478
ag246
(g249
S'\x0f\xea\xa0\x0e\xea\xa0\xce?'
p1479
tp1480
Rp1481
ag246
(g249
S'\x9a\x99\x99\x99\x99\x99\xb9?'
p1482
tp1483
Rp1484
ag246
(g249
S'\xcc\xcc\xcc\xcc\xcc\xcc\xdc?'
p1485
tp1486
Rp1487
ag246
(g249
S'\x9a\x99\x99\x99\x99\x99\xc9?'
p1488
tp1489
Rp1490
aI0
ag246
(g249
S'\x9a\x99\x99\x99\x99\x99\xd9?'
p1491
tp1492
Rp1493
ag246
(g249
S'\x00\x00\x00\x00\x00\x00\x00\x00'
p1494
tp1495
Rp1496
ag246
(g249
S'\xbb\xbb\xbb\xbb\xbb\xbb\xdb?'
p1497
tp1498
Rp1499
ag246
(g249
S'333333\xef?'
p1500
tp1501
Rp1502
ag246
(g249
S'333333\xf1?'
p1503
tp1504
Rp1505
ag246
(g249
S'333333\xf3?'
p1506
tp1507
Rp1508
ag246
(g249
S'\x00\x00\x00\x00\x00\x00\x00\x00'
p1509
tp1510
Rp1511
ag246
(g249
S'VUUUUU\xd9?'
p1512
tp1513
Rp1514
ag246
(g249
S'X|\xc5W|\xc5\xe7?'
p1515
tp1516
Rp1517
ag246
(g249
S'\xce\xcc\xcc\xcc\xcc\xcc\xec?'
p1518
tp1519
Rp1520
ag246
(g249
S'\xe3V(n\x85\xe2\xc6?'
p1521
tp1522
Rp1523
ag246
(g249
S'\x92$I\x92$I\xd2?'
p1524
tp1525
Rp1526
ag246
(g249
S'ffffff\xd6?'
p1527
tp1528
Rp1529
ag246
(g249
S'\xe8\xa2\x8b.\xba\xe8\xda?'
p1530
tp1531
Rp1532
aI0
ag246
(g249
S'\x00\x00\x00\x00\x00\x00\xf0?'
p1533
tp1534
Rp1535
ag246
(g249
S'\x9a\x99\x99\x99\x99\x99\xb9?'
p1536
tp1537
Rp1538
ag246
(g249
S'\x00\x00\x00\x00\x00\x00\x00\x00'
p1539
tp1540
Rp1541
ag246
(g249
S'\x99\x99\x99\x99\x99\x99\xc9?'
p1542
tp1543
Rp1544
ag246
(g249
S'433333\xf3?'
p1545
tp1546
Rp1547
ag246
(g249
S'\x9a\x99\x99\x99\x99\x99\xb9?'
p1548
tp1549
Rp1550
ag246
(g249
S'\x00\x00\x00\x00\x00\x00\xe0?'
p1551
tp1552
Rp1553
ag246
(g249
S'\xdb\xb6m\xdb\xb6m\xdb?'
p1554
tp1555
Rp1556
ag246
(g249
S'\x9a\x99\x99\x99\x99\x99\xc9?'
p1557
tp1558
Rp1559
ag246
(g249
S'xwwwww\xdf?'
p1560
tp1561
Rp1562
ag246
(g249
S'\x00\x00\x00\x00\x00\x00\xf0?'
p1563
tp1564
Rp1565
ag246
(g249
S'\x9a\x99\x99\x99\x99\x99\xe9?'
p1566
tp1567
Rp1568
ag246
(g249
S'\xcc\xcc\xcc\xcc\xcc\xcc\xe3?'
p1569
tp1570
Rp1571
ag246
(g249
S'DDDDDD\xe1?'
p1572
tp1573
Rp1574
ag246
(g249
S'\x17l\xc1\x16l\xc1\xe6?'
p1575
tp1576
Rp1577
ag246
(g249
S'ffffff\xe0?'
p1578
tp1579
Rp1580
ag246
(g249
S'ywwwww\xdd?'
p1581
tp1582
Rp1583
ag246
(g249
S'333333\xe3?'
p1584
tp1585
Rp1586
ag246
(g249
S'333333\xdb?'
p1587
tp1588
Rp1589
aI0
ag246
(g249
S'\xcd\xcc\xcc\xcc\xcc\xcc\xdc?'
p1590
tp1591
Rp1592
ag246
(g249
S'\x98\x99\x99\x99\x99\x99\xf7?'
p1593
tp1594
Rp1595
ag246
(g249
S'\x00\x00\x00\x00\x00\x00\x00\x00'
p1596
tp1597
Rp1598
ag246
(g249
S'\x88\x88\x88\x88\x88\x88\xe8?'
p1599
tp1600
Rp1601
ag246
(g249
S'\x00\x00\x00\x00\x00\x00\xe0?'
p1602
tp1603
Rp1604
ag246
(g249
S'\xe9\x93>\xe9\x93>\xe5?'
p1605
tp1606
Rp1607
ag246
(g249
S'\xcc\xcc\xcc\xcc\xcc\xcc\xe0?'
p1608
tp1609
Rp1610
ag246
(g249
S'DDDDDD\xc4?'
p1611
tp1612
Rp1613
ag246
(g249
S'\xdd\xdd\xdd\xdd\xdd\xdd\xcd?'
p1614
tp1615
Rp1616
ag246
(g249
S'\x00\x00\x00\x00\x00\x00\xd0?'
p1617
tp1618
Rp1619
ag246
(g249
S'\x00\x00\x00\x00\x00\x00\x00\x00'
p1620
tp1621
Rp1622
ag246
(g249
S'gfffff\xd2?'
p1623
tp1624
Rp1625
ag246
(g249
S'DDDDDD\xf2?'
p1626
tp1627
Rp1628
ag246
(g249
S'ffffff\xee?'
p1629
tp1630
Rp1631
ag246
(g249
S'\x00\x00\x00\x00\x00\x00\xe0?'
p1632
tp1633
Rp1634
ag246
(g249
S'\x00\x00\x00\x00\x00\x00\xf2?'
p1635
tp1636
Rp1637
ag246
(g249
S'\x00\x00\x00\x00\x00\x00\xe0?'
p1638
tp1639
Rp1640
ag246
(g249
S'\xcd\xcc\xcc\xcc\xcc\xcc\xf4?'
p1641
tp1642
Rp1643
ag246
(g249
S'\xdaF\xf9\xc2\xe9\x84\xdd?'
p1644
tp1645
Rp1646
aI0
aI0
ag246
(g249
S'\x11\x11\x11\x11\x11\x11\xb1?'
p1647
tp1648
Rp1649
ag246
(g249
S'\xaa\xaa\xaa\xaa\xaa\xaa\xea?'
p1650
tp1651
Rp1652
ag246
(g249
S'233333\xf3?'
p1653
tp1654
Rp1655
ag246
(g249
S'433333\xeb?'
p1656
tp1657
Rp1658
ag246
(g249
S'\xef\xee\xee\xee\xee\xee\xe6?'
p1659
tp1660
Rp1661
aI0
ag246
(g249
S'2u\xb9\xfdA\x86\xd2?'
p1662
tp1663
Rp1664
ag246
(g249
S'\x99\x99\x99\x99\x99\x99\xf1?'
p1665
tp1666
Rp1667
ag246
(g249
S'\x00\x00\x00\x00\x00\x00\xd0?'
p1668
tp1669
Rp1670
ag246
(g249
S'\xcd\xcc\xcc\xcc\xcc\xcc\xdc?'
p1671
tp1672
Rp1673
ag246
(g249
S'>\n\xd7\xa3p=\xea?'
p1674
tp1675
Rp1676
ag246
(g249
S'\xc30\x0c\xc30\x0c\xeb?'
p1677
tp1678
Rp1679
ag246
(g249
S'\x00\x00\x00\x00\x00\x00\x00\x00'
p1680
tp1681
Rp1682
ag246
(g249
S'wwwwww\xd7?'
p1683
tp1684
Rp1685
ag246
(g249
S'\x9a\x99\x99\x99\x99\x99\xc9?'
p1686
tp1687
Rp1688
ag246
(g249
S'\x9a\x99\x99\x99\x99\x99\xe1?'
p1689
tp1690
Rp1691
ag246
(g249
S'\x9a\x99\x99\x99\x99\x99\xe9?'
p1692
tp1693
Rp1694
ag246
(g249
S'333333\xe3?'
p1695
tp1696
Rp1697
ag246
(g249
S'\xa5\\\xca\xa5\\\xca\xe5?'
p1698
tp1699
Rp1700
ag246
(g249
S'\x99\x99\x99\x99\x99\x99\xd9?'
p1701
tp1702
Rp1703
ag246
(g249
S'\x07uP\x07uP\xd7?'
p1704
tp1705
Rp1706
ag246
(g249
S'\x11\x11\x11\x11\x11\x11\xe9?'
p1707
tp1708
Rp1709
ag246
(g249
S'\x00\x00\x00\x00\x00\x00\xe8?'
p1710
tp1711
Rp1712
aI0
ag246
(g249
S'\x00\x00\x00\x00\x00\x00\x00\x00'
p1713
tp1714
Rp1715
ag246
(g249
S'\x9a\x99\x99\x99\x99\x99\xb9?'
p1716
tp1717
Rp1718
ag246
(g249
S'\x00\x00\x00\x00\x00\x00\x00\x00'
p1719
tp1720
Rp1721
ag246
(g249
S'333333\xd3?'
p1722
tp1723
Rp1724
ag246
(g249
S'=%\xc8S\x82<\xd5?'
p1725
tp1726
Rp1727
ag246
(g249
S'\x8b.\xba\xe8\xa2\x8b\xde?'
p1728
tp1729
Rp1730
ag246
(g249
S'J\x9f\xf4I\x9f\xf4\xe1?'
p1731
tp1732
Rp1733
ag246
(g249
S'\x00\x00\x00\x00\x00\x00\xf0?'
p1734
tp1735
Rp1736
aI0
aI0
ag246
(g249
S'\x00\x00\x00\x00\x00\x00\xb0?'
p1737
tp1738
Rp1739
ag246
(g249
S'\x00\x00\x00\x00\x00\x00\xf0?'
p1740
tp1741
Rp1742
ag246
(g249
S'ffffff\xe6?'
p1743
tp1744
Rp1745
ag246
(g249
S'\x00\x00\x00\x00\x00\x00\xf0?'
p1746
tp1747
Rp1748
aI0
ag246
(g249
S'\x00\x00\x00\x00\x00\x00\x00\x00'
p1749
tp1750
Rp1751
aI0
ag246
(g249
S'\x00\x00\x00\x00\x00\x00\xf0?'
p1752
tp1753
Rp1754
ag246
(g249
S'FDDDDD\xd4?'
p1755
tp1756
Rp1757
ag246
(g249
S'\x88\x88\x88\x88\x88\x88\xe8?'
p1758
tp1759
Rp1760
ag246
(g249
S'\xe0\xdd\xdd\xdd\xdd\xdd\xbd?'
p1761
tp1762
Rp1763
ag246
(g249
S'\x00\x00\x00\x00\x00\x00\xf0?'
p1764
tp1765
Rp1766
ag246
(g249
S'\x86\xebQ\xb8\x1e\x85\xd3?'
p1767
tp1768
Rp1769
ag246
(g249
S'\x9a\x99\x99\x99\x99\x99\xe1?'
p1770
tp1771
Rp1772
ag246
(g249
S'\x00\x00\x00\x00\x00\x00\xe4?'
p1773
tp1774
Rp1775
ag246
(g249
S'\x9a\x99\x99\x99\x99\x99\xe3?'
p1776
tp1777
Rp1778
ag246
(g249
S'ffffff\xe6?'
p1779
tp1780
Rp1781
ag246
(g249
S'\x00\x00\x00\x00\x00\x00\xf0?'
p1782
tp1783
Rp1784
ag246
(g249
S'\xc1\x16l\xc1\x16l\xe1?'
p1785
tp1786
Rp1787
ag246
(g249
S'433333\xeb?'
p1788
tp1789
Rp1790
ag246
(g249
S'\x00\x00\x00\x00\x00\x00\xe8?'
p1791
tp1792
Rp1793
ag246
(g249
S'\xd3\x06:m\xa0\xd3\xe6?'
p1794
tp1795
Rp1796
aI0
ag246
(g249
S'\x9a\x99\x99\x99\x99\x99\xe9?'
p1797
tp1798
Rp1799
ag246
(g249
S'\x00\x00\x00\x00\x00\x00\xf0?'
p1800
tp1801
Rp1802
aI0
aI0
aI0
ag246
(g249
S'\xebQ\xb8\x1e\x85\xeb\xe5?'
p1803
tp1804
Rp1805
aI0
ag246
(g249
S'\x1c\xc7q\x1c\xc7q\xec?'
p1806
tp1807
Rp1808
ag246
(g249
S'\xcd\xcc\xcc\xcc\xcc\xcc\xec?'
p1809
tp1810
Rp1811
ag246
(g249
S'DDDDDD\xda?'
p1812
tp1813
Rp1814
ag246
(g249
S'\x99\x99\x99\x99\x99\x99\xeb?'
p1815
tp1816
Rp1817
ag246
(g249
S'\xff\xff\xff\xff\xff\xff\xdf?'
p1818
tp1819
Rp1820
ag246
(g249
S'\x00\x00\x00\x00\x00\x00\xe8?'
p1821
tp1822
Rp1823
ag246
(g249
S'ffffff\xd4?'
p1824
tp1825
Rp1826
ag246
(g249
S'\x00\x00\x00\x00\x00\x00\xf0?'
p1827
tp1828
Rp1829
aI0
ag246
(g249
S'\xcc\xcc\xcc\xcc\xcc\xcc\xdc?'
p1830
tp1831
Rp1832
ag246
(g249
S'\x00\x00\x00\x00\x00\x00\xd8?'
p1833
tp1834
Rp1835
ag246
(g249
S'\x9a\x99\x99\x99\x99\x99\xd9?'
p1836
tp1837
Rp1838
ag246
(g249
S'\x9a\x99\x99\x99\x99\x99\xe1?'
p1839
tp1840
Rp1841
ag246
(g249
S'DDDDDD\xe4?'
p1842
tp1843
Rp1844
ag246
(g249
S'333333\xe3?'
p1845
tp1846
Rp1847
ag246
(g249
S'\x88\x88\x88\x88\x88\x88\xe8?'
p1848
tp1849
Rp1850
ag246
(g249
S'\x9a\x99\x99\x99\x99\x99\xe1?'
p1851
tp1852
Rp1853
ag246
(g249
S'$I\x92$I\x92\xe8?'
p1854
tp1855
Rp1856
aI0
ag246
(g249
S'\x9a\x99\x99\x99\x99\x99\xe9?'
p1857
tp1858
Rp1859
ag246
(g249
S'333333\xe3?'
p1860
tp1861
Rp1862
ag246
(g249
S'\x00\x00\x00\x00\x00\x00\xf0?'
p1863
tp1864
Rp1865
ag246
(g249
S'<\xcf\xf3<\xcf\xf3\xdc?'
p1866
tp1867
Rp1868
ag246
(g249
S'\x00\x00\x00\x00\x00\x00\xf0?'
p1869
tp1870
Rp1871
ag246
(g249
S'\x00\x00\x00\x00\x00\x00\xf0?'
p1872
tp1873
Rp1874
ag246
(g249
S'DDDDDD\xe4?'
p1875
tp1876
Rp1877
ag246
(g249
S'\xcd\xcc\xcc\xcc\xcc\xcc\xec?'
p1878
tp1879
Rp1880
ag246
(g249
S'ffffff\xe6?'
p1881
tp1882
Rp1883
ag246
(g249
S'\x00\x00\x00\x00\x00\x00\xf0?'
p1884
tp1885
Rp1886
ag246
(g249
S'\x9a\x99\x99\x99\x99\x99\xe9?'
p1887
tp1888
Rp1889
ag246
(g249
S'ffffff\xe6?'
p1890
tp1891
Rp1892
ag246
(g249
S'\x00\x00\x00\x00\x00\x00\xf0?'
p1893
tp1894
Rp1895
ag246
(g249
S'\x8b\xaf\xf8\x8a\xaf\xf8\xe2?'
p1896
tp1897
Rp1898
ag246
(g249
S'\xd6\xa3p=\n\xd7\xdf?'
p1899
tp1900
Rp1901
ag246
(g249
S',\x0fH\xd6\xb9\xf2\xd8?'
p1902
tp1903
Rp1904
aI0
ag246
(g249
S'gfffff\xe6?'
p1905
tp1906
Rp1907
ag246
(g249
S'ffffff\xe6?'
p1908
tp1909
Rp1910
ag246
(g249
S'\xc20\x0c\xc30\x0c\xe3?'
p1911
tp1912
Rp1913
ag246
(g249
S'\x00\x00\x00\x00\x00\x00\xf0?'
p1914
tp1915
Rp1916
ag246
(g249
S'\x9a\x99\x99\x99\x99\x99\xe9?'
p1917
tp1918
Rp1919
ag246
(g249
S'\x88\x88\x88\x88\x88\x88\xe8?'
p1920
tp1921
Rp1922
ag246
(g249
S'\x9a\x99\x99\x99\x99\x99\xe9?'
p1923
tp1924
Rp1925
ag246
(g249
S'VUUUUU\xd5?'
p1926
tp1927
Rp1928
aI0
ag246
(g249
S'\x00\x00\x00\x00\x00\x00\xf0?'
p1929
tp1930
Rp1931
aI0
ag246
(g249
S'\x17]t\xd1E\x17\xdd?'
p1932
tp1933
Rp1934
ag246
(g249
S'\x00\x00\x00\x00\x00\x00\xe4?'
p1935
tp1936
Rp1937
ag246
(g249
S'\x00\x00\x00\x00\x00\x00\x00\x00'
p1938
tp1939
Rp1940
ag246
(g249
S'\x00\x00\x00\x00\x00\x00\xf0?'
p1941
tp1942
Rp1943
aI0
ag246
(g249
S'\x00\x00\x00\x00\x00\x00\x00\x00'
p1944
tp1945
Rp1946
ag246
(g249
S'\xdb\xb6m\xdb\xb6m\xdb?'
p1947
tp1948
Rp1949
ag246
(g249
S'UUUUUU\xe5?'
p1950
tp1951
Rp1952
ag246
(g249
S'\xcd\xcc\xcc\xcc\xcc\xcc\xec?'
p1953
tp1954
Rp1955
ag246
(g249
S'\x00\x00\x00\x00\x00\x00\xf0?'
p1956
tp1957
Rp1958
ag246
(g249
S'ffffff\xe6?'
p1959
tp1960
Rp1961
ag246
(g249
S'\xcc\xcc\xcc\xcc\xcc\xcc\xdc?'
p1962
tp1963
Rp1964
ag246
(g249
S'ffffff\xc6?'
p1965
tp1966
Rp1967
aI0
ag246
(g249
S'\x89\x88\x88\x88\x88\x88\xe8?'
p1968
tp1969
Rp1970
ag246
(g249
S'\x00\x00\x00\x00\x00\x00\x00\x00'
p1971
tp1972
Rp1973
ag246
(g249
S'wwwwww\xe7?'
p1974
tp1975
Rp1976
ag246
(g249
S'\xac}\xc3\xda7\xac\xe5?'
p1977
tp1978
Rp1979
ag246
(g249
S'\x00\x00\x00\x00\x00\x00\xf0?'
p1980
tp1981
Rp1982
ag246
(g249
S'\xcd\xcc\xcc\xcc\xcc\xcc\xec?'
p1983
tp1984
Rp1985
ag246
(g249
S'\x00\x00\x00\x00\x00\x00\x00\x00'
p1986
tp1987
Rp1988
ag246
(g249
S'\x9a\x99\x99\x99\x99\x99\xd9?'
p1989
tp1990
Rp1991
ag246
(g249
S'\xcd\xcc\xcc\xcc\xcc\xcc\xec?'
p1992
tp1993
Rp1994
ag246
(g249
S'\x00\x00\x00\x00\x00\x00\xe4?'
p1995
tp1996
Rp1997
ag246
(g249
S'\xd9d\x93M6\xd9\xe4?'
p1998
tp1999
Rp2000
ag246
(g249
S'\xde\xdd\xdd\xdd\xdd\xdd\xed?'
p2001
tp2002
Rp2003
ag246
(g249
S'ffffff\xe6?'
p2004
tp2005
Rp2006
ag246
(g249
S'\x9a\x99\x99\x99\x99\x99\xe1?'
p2007
tp2008
Rp2009
aI0
ag246
(g249
S'\x00\x00\x00\x00\x00\x00\xf0?'
p2010
tp2011
Rp2012
ag246
(g249
S'\x00\x00\x00\x00\x00\x00\xe0?'
p2013
tp2014
Rp2015
ag246
(g249
S'\x00\x00\x00\x00\x00\x00\x00\x00'
p2016
tp2017
Rp2018
ag246
(g249
S'\x18\x11\x11\x11\x11\x11\xa1?'
p2019
tp2020
Rp2021
ag246
(g249
S'\x9a\x99\x99\x99\x99\x99\xe9?'
p2022
tp2023
Rp2024
ag246
(g249
S'ffffff\xde?'
p2025
tp2026
Rp2027
ag246
(g249
S'\x00\x00\x00\x00\x00\x00\xf0?'
p2028
tp2029
Rp2030
ag246
(g249
S'333333\xe3?'
p2031
tp2032
Rp2033
ag246
(g249
S'\x9a\x99\x99\x99\x99\x99\xe1?'
p2034
tp2035
Rp2036
ag246
(g249
S'\xde\xdd\xdd\xdd\xdd\xdd\xe1?'
p2037
tp2038
Rp2039
ag246
(g249
S'hfffff\xd3?'
p2040
tp2041
Rp2042
ag246
(g249
S'\x00\x00\x00\x00\x00\x00\xf0?'
p2043
tp2044
Rp2045
ag246
(g249
S'xwwwww\xe7?'
p2046
tp2047
Rp2048
ag246
(g249
S'\xcc\xcc\xcc\xcc\xcc\xcc\xe4?'
p2049
tp2050
Rp2051
ag246
(g249
S'\x00\x00\x00\x00\x00\x00\xe3?'
p2052
tp2053
Rp2054
ag246
(g249
S'\x00\x00\x00\x00\x00\x00\xf0?'
p2055
tp2056
Rp2057
ag246
(g249
S'xwwwww\xd9?'
p2058
tp2059
Rp2060
ag246
(g249
S'\x9a\x99\x99\x99\x99\x99\xe9?'
p2061
tp2062
Rp2063
ag246
(g249
S'\xf6(\\\x8f\xc2\xf5\xe0?'
p2064
tp2065
Rp2066
aI0
ag246
(g249
S'\x00\x00\x00\x00\x00\x00\xf0?'
p2067
tp2068
Rp2069
ag246
(g249
S'\xcd\xcc\xcc\xcc\xcc\xcc\xec?'
p2070
tp2071
Rp2072
ag246
(g249
S'\x9a\x99\x99\x99\x99\x99\xb9?'
p2073
tp2074
Rp2075
ag246
(g249
S'333333\xe3?'
p2076
tp2077
Rp2078
ag246
(g249
S'\x9a\x99\x99\x99\x99\x99\xe5?'
p2079
tp2080
Rp2081
ag246
(g249
S'\x8c\xe38\x8e\xe38\xd6?'
p2082
tp2083
Rp2084
ag246
(g249
S'\x9a\x99\x99\x99\x99\x99\xe1?'
p2085
tp2086
Rp2087
ag246
(g249
S"(}\xd2'}\xd2\xc7?"
p2088
tp2089
Rp2090
ag246
(g249
S'""""""\xe2?'
p2091
tp2092
Rp2093
ag246
(g249
S'\x00\x00\x00\x00\x00\x00\xd0?'
p2094
tp2095
Rp2096
ag246
(g249
S'\x00\x00\x00\x00\x00\x00\xf0?'
p2097
tp2098
Rp2099
ag246
(g249
S'333333\xd7?'
p2100
tp2101
Rp2102
ag246
(g249
S'\x98\x99\x99\x99\x99\x99\xb9?'
p2103
tp2104
Rp2105
ag246
(g249
S'\xcc\xcc\xcc\xcc\xcc\xcc\xdc?'
p2106
tp2107
Rp2108
ag246
(g249
S'\x00\x00\x00\x00\x00\x00\xf0?'
p2109
tp2110
Rp2111
ag246
(g249
S'\x9a\x99\x99\x99\x99\x99\xe9?'
p2112
tp2113
Rp2114
ag246
(g249
S'\x00\x00\x00\x00\x00\x00\xe0?'
p2115
tp2116
Rp2117
ag246
(g249
S'\x00\x00\x00\x00\x00\x00\xf0?'
p2118
tp2119
Rp2120
ag246
(g249
S'\xcd\xcc\xcc\xcc\xcc\xcc\xe4?'
p2121
tp2122
Rp2123
aI0
aI0
ag246
(g249
S'333333\xe3?'
p2124
tp2125
Rp2126
ag246
(g249
S'UUUUUU\xe5?'
p2127
tp2128
Rp2129
ag246
(g249
S'\x00\x00\x00\x00\x00\x00\xf0?'
p2130
tp2131
Rp2132
ag246
(g249
S'\x00\x00\x00\x00\x00\x00\xeb?'
p2133
tp2134
Rp2135
ag246
(g249
S'433333\xe3?'
p2136
tp2137
Rp2138
aI0
ag246
(g249
S'\x14\xaeG\xe1z\x14\xce?'
p2139
tp2140
Rp2141
ag246
(g249
S'\x00\x00\x00\x00\x00\x00\xf0?'
p2142
tp2143
Rp2144
ag246
(g249
S'\x00\x00\x00\x00\x00\x00\xd0?'
p2145
tp2146
Rp2147
ag246
(g249
S'\x9a\x99\x99\x99\x99\x99\xe1?'
p2148
tp2149
Rp2150
ag246
(g249
S'\x88\x88\x88\x88\x88\x88\xe8?'
p2151
tp2152
Rp2153
ag246
(g249
S'\x88\x88\x88\x88\x88\x88\xe8?'
p2154
tp2155
Rp2156
ag246
(g249
S'\x9a\x99\x99\x99\x99\x99\xd9?'
p2157
tp2158
Rp2159
aI24
aI32
aI64
aI25
aI16
aI144
aI48
aI30
aI42
aI81
aI14
aI35
aI144
aI26
aI75
aI30
aI27
aI48
aI46
aI10
aI23
aI72
aI510
aI199
aI47
aI8
aI16
aI21
aI83
aI56
aI36
aI52
aI78
aI43
aI67
aI26
aI137
aI65
aI288
aI132
aI211
aI119
aI129
aI19
aI51
aI162
aI8
aI6
aI9
aI209
aI7
aI73
aI103
aI146
aI51
aI88
aI19
aI21
aI184
aI19
aI40
aI335
aI38
aI89
aI466
aI40
aI68
aI31
aI83
aI12
aI35
aI16
aI243
aI24
aI227
aI188
aI104
aI57
aI15
aI146
aI103
aI44
aI35
aI49
aI162
aI159
aI3
aI250
aI25
aI85
aI206
aI52
aI95
aI36
aI54
aI12
aI44
aI11
aI17
aI84
aI7
aI147
aI9
aI7
aI52
aI211
aI259
aI113
aI14
aI30
aI7
aI15
aI64
aI10
aI24
aI85
aI229
aI77
aI19
aI50
aI159
aI37
aI42
aI20
aI53
aI101
aI13
aI95
aI87
aI26
aI19
aI130
aI24
aI133
aI72
aI46
aI47
aI19
aI79
aI69
aI124
aI163
aI137
aI121
aI28
aI83
aI24
aI209
aI56
aI30
aI210
aI106
aI55
aI36
aI22
aI50
aI31
aI44
aI96
aI58
aI36
aI51
aI152
aI24
aI104
aI158
aI23
aI4
aI74
aI45
aI236
aI281
aI68
aI14
aI47
aI205
aI28
aI58
aI254
aI229
aI34
aF0.0
aF0.0
aF0.05555555555555555
aF0.0
aF0.09090909090909091
aF0.0625
aF0.03125
aF0.11764705882352941
aF0.09090909090909091
aF0.024390243902439025
aF0.125
aF0.0
aF0.011235955056179775
aF0.0
aF0.0425531914893617
aF0.0
aF0.0
aF0.0
aF0.045454545454545456
aF0.0
aF0.0
aF0.043478260869565216
aF0.03728813559322034
aF0.144
aF0.0
aF0.0
aF0.0
aF0.0
aF0.018867924528301886
aF0.0
aF0.09523809523809523
aF0.0
aF0.04
aF0.0
aF0.046511627906976744
aF0.05
aF0.0
aF0.0
aF0.06077348066298342
aF0.05813953488372093
aF0.015873015873015872
aF0.0
aF0.03571428571428571
aF0.0
aF0.03125
aF0.011494252873563218
aF0.0
aF0.0
aF0.0
aF0.04504504504504504
aF0.0
aF0.027777777777777776
aF0.0
aF0.025
aF0.034482758620689655
aF0.021739130434782608
aF0.0
aF0.0
aF0.026785714285714284
aF0.21428571428571427
aF0.0
aF0.0
aF0.0
aF0.05357142857142857
aF0.01195219123505976
aF0.0
aF0.0
aF0.0
aF0.0
aF0.0
aF0.0
aF0.0
aF0.03225806451612903
aF0.0
aF0.051094890510948905
aF0.01818181818181818
aF0.09615384615384616
aF0.0
aF0.1111111111111111
aF0.013333333333333334
aF0.047619047619047616
aF0.05
aF0.047619047619047616
aF0.03333333333333333
aF0.009615384615384616
aF0.0379746835443038
aF0.0
aF0.022556390977443608
aF0.0
aF0.1
aF0.052083333333333336
aF0.07142857142857142
aF0.018867924528301886
aF0.0
aF0.03333333333333333
aF0.0
aF0.0
aF0.0
aF0.0
aF0.06
aF0.0
aF0.036585365853658534
aF0.0
aF0.0
aF0.034482758620689655
aF0.045871559633027525
aF0.006896551724137931
aF0.0625
aF0.0
aF0.0
aF0.0
aF0.0
aF0.05714285714285714
aF0.0
aF0.0625
aF0.021739130434782608
aF0.02830188679245283
aF0.08108108108108109
aF0.0
aF0.07407407407407407
aF0.03125
aF0.0
aF0.09090909090909091
aF0.0
aF0.0625
aF0.03636363636363636
aF0.0
aF0.034482758620689655
aF0.038461538461538464
aF0.0
aF0.08333333333333333
aF0.0125
aF0.125
aF0.05063291139240506
aF0.10204081632653061
aF0.04
aF0.1111111111111111
aF0.09090909090909091
aF0.06382978723404255
aF0.0
aF0.0
aF0.020833333333333332
aF0.0375
aF0.025974025974025976
aF0.0
aF0.0
aF0.0625
aF0.03669724770642202
aF0.034482758620689655
aF0.0
aF0.042735042735042736
aF0.058823529411764705
aF0.0967741935483871
aF0.0
aF0.0
aF0.07692307692307693
aF0.0
aF0.037037037037037035
aF0.05
aF0.03333333333333333
aF0.037037037037037035
aF0.0
aF0.03260869565217391
aF0.125
aF0.031746031746031744
aF0.05405405405405406
aF0.0
aF0.0
aF0.0196078431372549
aF0.0
aF0.013793103448275862
aF0.025477707006369428
aF0.0
aF0.0
aF0.034482758620689655
aF0.02608695652173913
aF0.05263157894736842
aF0.0
aF0.02
aF0.015625
aF0.0
ag246
(g249
S'\x00\x00\x00\x00\x00\x008@'
p2160
tp2161
Rp2162
ag246
(g249
S'\x00\x00\x00\x00\x00\x000@'
p2163
tp2164
Rp2165
ag246
(g249
S'\x9a\x99\x99\x99\x99\x99)@'
p2166
tp2167
Rp2168
ag246
(g249
S'\xab\xaa\xaa\xaa\xaa\xaa @'
p2169
tp2170
Rp2171
ag246
(g249
S'UUUUUU\x15@'
p2172
tp2173
Rp2174
ag246
(g249
S'\x00\x00\x00\x00\x00\x002@'
p2175
tp2176
Rp2177
ag246
(g249
S'\x00\x00\x00\x00\x00\x000@'
p2178
tp2179
Rp2180
ag246
(g249
S'\x00\x00\x00\x00\x00\x00$@'
p2181
tp2182
Rp2183
ag246
(g249
S'\x00\x00\x00\x00\x00\x00,@'
p2184
tp2185
Rp2186
ag246
(g249
S'\x00\x00\x00\x00\x00@4@'
p2187
tp2188
Rp2189
ag246
(g249
S'\x00\x00\x00\x00\x00\x00,@'
p2190
tp2191
Rp2192
ag246
(g249
S'\x00\x00\x00\x00\x00\x801@'
p2193
tp2194
Rp2195
ag246
(g249
S'\xcd\xcc\xcc\xcc\xcc\xcc,@'
p2196
tp2197
Rp2198
ag246
(g249
S'UUUUUU!@'
p2199
tp2200
Rp2201
ag246
(g249
S'\x00\x00\x00\x00\x00\x009@'
p2202
tp2203
Rp2204
ag246
(g249
S'\x00\x00\x00\x00\x00\x00>@'
p2205
tp2206
Rp2207
ag246
(g249
S'\x00\x00\x00\x00\x00\x00+@'
p2208
tp2209
Rp2210
ag246
(g249
S'333333#@'
p2211
tp2212
Rp2213
ag246
(g249
S"\x00\x00\x00\x00\x00\x00'@"
p2214
tp2215
Rp2216
ag246
(g249
S'\x00\x00\x00\x00\x00\x00$@'
p2217
tp2218
Rp2219
ag246
(g249
S'\x00\x00\x00\x00\x00\x007@'
p2220
tp2221
Rp2222
ag246
(g249
S'\x00\x00\x00\x00\x00\x00B@'
p2223
tp2224
Rp2225
ag246
(g249
S'I\x92$I\x92$-@'
p2226
tp2227
Rp2228
ag246
(g249
S'\xdb\xb6m\xdb\xb6m<@'
p2229
tp2230
Rp2231
ag246
(g249
S'\xcd\xcc\xcc\xcc\xcc\xcc"@'
p2232
tp2233
Rp2234
ag246
(g249
S'\x00\x00\x00\x00\x00\x00 @'
p2235
tp2236
Rp2237
ag246
(g249
S'\x00\x00\x00\x00\x00\x000@'
p2238
tp2239
Rp2240
ag246
(g249
S'\x00\x00\x00\x00\x00\x005@'
p2241
tp2242
Rp2243
ag246
(g249
S'\x1c\xc7q\x1c\xc7q"@'
p2244
tp2245
Rp2246
ag246
(g249
S'\xab\xaa\xaa\xaa\xaa\xaa2@'
p2247
tp2248
Rp2249
ag246
(g249
S'\x00\x00\x00\x00\x00\x00(@'
p2250
tp2251
Rp2252
ag246
(g249
S'\x00\x00\x00\x00\x00\x00:@'
p2253
tp2254
Rp2255
ag246
(g249
S'\x00\x00\x00\x00\x00\x803@'
p2256
tp2257
Rp2258
ag246
(g249
S'\x00\x00\x00\x00\x00\x805@'
p2259
tp2260
Rp2261
ag246
(g249
S'UUUUUU6@'
p2262
tp2263
Rp2264
ag246
(g249
S'\x00\x00\x00\x00\x00\x00*@'
p2265
tp2266
Rp2267
ag246
(g249
S'\x00\x00\x00\x00\x00 1@'
p2268
tp2269
Rp2270
ag246
(g249
S'\x00\x00\x00\x00\x00@0@'
p2271
tp2272
Rp2273
ag246
(g249
S'\r\xe55\x94\xd7P.@'
p2274
tp2275
Rp2276
ag246
(g249
S'\x00\x00\x00\x00\x00\x006@'
p2277
tp2278
Rp2279
ag246
(g249
S'\x00\x00\x00\x00\x00`:@'
p2280
tp2281
Rp2282
ag246
(g249
S'\x00\x00\x00\x00\x00\x001@'
p2283
tp2284
Rp2285
ag246
(g249
S"t\xd1E\x17]t'@"
p2286
tp2287
Rp2288
ag246
(g249
S'\x00\x00\x00\x00\x00\x003@'
p2289
tp2290
Rp2291
ag246
(g249
S'\x00\x00\x00\x00\x00\x80)@'
p2292
tp2293
Rp2294
ag246
(g249
S'\x00\x00\x00\x00\x00@$@'
p2295
tp2296
Rp2297
ag246
(g249
S'\x00\x00\x00\x00\x00\x00 @'
p2298
tp2299
Rp2300
ag246
(g249
S'\x00\x00\x00\x00\x00\x00\x18@'
p2301
tp2302
Rp2303
ag246
(g249
S'\x00\x00\x00\x00\x00\x00"@'
p2304
tp2305
Rp2306
ag246
(g249
S'\xb7m\xdb\xb6m\xdb=@'
p2307
tp2308
Rp2309
ag246
(g249
S'\x00\x00\x00\x00\x00\x00\x1c@'
p2310
tp2311
Rp2312
ag246
(g249
S'333333-@'
p2313
tp2314
Rp2315
ag246
(g249
S'\x9a\x99\x99\x99\x99\x994@'
p2316
tp2317
Rp2318
ag246
(g249
S'333333=@'
p2319
tp2320
Rp2321
ag246
(g249
S'\x00\x00\x00\x00\x00\x001@'
p2322
tp2323
Rp2324
ag246
(g249
S'UUUUUU=@'
p2325
tp2326
Rp2327
ag246
(g249
S'\x00\x00\x00\x00\x00\x00#@'
p2328
tp2329
Rp2330
ag246
(g249
S'\x00\x00\x00\x00\x00\x005@'
p2331
tp2332
Rp2333
ag246
(g249
S'ffffff2@'
p2334
tp2335
Rp2336
ag246
(g249
S'\x00\x00\x00\x00\x00\x003@'
p2337
tp2338
Rp2339
ag246
(g249
S'\x00\x00\x00\x00\x00\x004@'
p2340
tp2341
Rp2342
ag246
(g249
S'O\xec\xc4N\xec\xc49@'
p2343
tp2344
Rp2345
ag246
(g249
S'UUUUUU)@'
p2346
tp2347
Rp2348
ag246
(g249
S'\xcd\xcc\xcc\xcc\xcc\xcc1@'
p2349
tp2350
Rp2351
ag246
(g249
S'\xcd\xcc\xcc\xcc\xccL7@'
p2352
tp2353
Rp2354
ag246
(g249
S'\xab\xaa\xaa\xaa\xaa\xaa*@'
p2355
tp2356
Rp2357
ag246
(g249
S'\x00\x00\x00\x00\x00\x001@'
p2358
tp2359
Rp2360
ag246
(g249
S'\x00\x00\x00\x00\x00\x00/@'
p2361
tp2362
Rp2363
ag246
(g249
S'\xab\xaa\xaa\xaa\xaa\xaa+@'
p2364
tp2365
Rp2366
ag246
(g249
S'\x00\x00\x00\x00\x00\x00(@'
p2367
tp2368
Rp2369
ag246
(g249
S"UUUUUU'@"
p2370
tp2371
Rp2372
ag246
(g249
S'\x00\x00\x00\x00\x00\x00 @'
p2373
tp2374
Rp2375
ag246
(g249
S'\x00\x00\x00\x00\x00`.@'
p2376
tp2377
Rp2378
ag246
(g249
S'\x00\x00\x00\x00\x00\x00(@'
p2379
tp2380
Rp2381
ag246
(g249
S'33333\xb36@'
p2382
tp2383
Rp2384
ag246
(g249
S'\xcd\xcc\xcc\xcc\xcc\xcc"@'
p2385
tp2386
Rp2387
ag246
(g249
S'UUUUUUA@'
p2388
tp2389
Rp2390
ag246
(g249
S'\x00\x00\x00\x00\x00\x003@'
p2391
tp2392
Rp2393
ag246
(g249
S'\x00\x00\x00\x00\x00\x00\x1e@'
p2394
tp2395
Rp2396
ag246
(g249
S'UUUUUU(@'
p2397
tp2398
Rp2399
ag246
(g249
S'9\x8e\xe38\x8e\xe3&@'
p2400
tp2401
Rp2402
ag246
(g249
S'UUUUUU-@'
p2403
tp2404
Rp2405
ag246
(g249
S'\x00\x00\x00\x00\x00\x801@'
p2406
tp2407
Rp2408
ag246
(g249
S'\x00\x00\x00\x00\x00\x808@'
p2409
tp2410
Rp2411
ag246
(g249
S'\x00\x00\x00\x00\x00\x00;@'
p2412
tp2413
Rp2414
ag246
(g249
S'n\xdb\xb6m\xdb\xb66@'
p2415
tp2416
Rp2417
ag246
(g249
S'\x00\x00\x00\x00\x00\x00\x08@'
p2418
tp2419
Rp2420
ag246
(g249
S'UUUUU\xd54@'
p2421
tp2422
Rp2423
ag246
(g249
S'\x00\x00\x00\x00\x00\x009@'
p2424
tp2425
Rp2426
ag246
(g249
S'\x00\x00\x00\x00\x00@5@'
p2427
tp2428
Rp2429
ag246
(g249
S'\xba\xe8\xa2\x8b.\xba2@'
p2430
tp2431
Rp2432
ag246
(g249
S'\xcd\xcc\xcc\xcc\xcc\xcc$@'
p2433
tp2434
Rp2435
ag246
(g249
S'\x00\x00\x00\x00\x00\x003@'
p2436
tp2437
Rp2438
ag246
(g249
S'\x00\x00\x00\x00\x00\x002@'
p2439
tp2440
Rp2441
ag246
(g249
S'\x00\x00\x00\x00\x00\x00K@'
p2442
tp2443
Rp2444
ag246
(g249
S'\x00\x00\x00\x00\x00\x00(@'
p2445
tp2446
Rp2447
ag246
(g249
S'\x9a\x99\x99\x99\x99\x99!@'
p2448
tp2449
Rp2450
ag246
(g249
S'\x00\x00\x00\x00\x00\x00&@'
p2451
tp2452
Rp2453
ag246
(g249
S'\xab\xaa\xaa\xaa\xaa\xaa\x16@'
p2454
tp2455
Rp2456
ag246
(g249
S'\x00\x00\x00\x00\x00\x00%@'
p2457
tp2458
Rp2459
ag246
(g249
S'\x00\x00\x00\x00\x00\x00\x1c@'
p2460
tp2461
Rp2462
ag246
(g249
S'\x00\x00\x00\x00\x00\x80(@'
p2463
tp2464
Rp2465
ag246
(g249
S'\x00\x00\x00\x00\x00\x00"@'
p2466
tp2467
Rp2468
ag246
(g249
S'\x00\x00\x00\x00\x00\x00\x1c@'
p2469
tp2470
Rp2471
ag246
(g249
S'\x00\x00\x00\x00\x00\x00:@'
p2472
tp2473
Rp2474
ag246
(g249
S'I\x92$I\x92$.@'
p2475
tp2476
Rp2477
ag246
(g249
S'\x00\x00\x00\x00\x00\x802@'
p2478
tp2479
Rp2480
ag246
(g249
S'\x9a\x99\x99\x99\x99\x996@'
p2481
tp2482
Rp2483
ag246
(g249
S'\x00\x00\x00\x00\x00\x00\x1c@'
p2484
tp2485
Rp2486
ag246
(g249
S'\x00\x00\x00\x00\x00\x00>@'
p2487
tp2488
Rp2489
ag246
(g249
S'\x00\x00\x00\x00\x00\x00\x0c@'
p2490
tp2491
Rp2492
ag246
(g249
S'\x00\x00\x00\x00\x00\x00.@'
p2493
tp2494
Rp2495
ag246
(g249
S'\x00\x00\x00\x00\x00\x000@'
p2496
tp2497
Rp2498
ag246
(g249
S'\x00\x00\x00\x00\x00\x00$@'
p2499
tp2500
Rp2501
ag246
(g249
S'333333\x13@'
p2502
tp2503
Rp2504
ag246
(g249
S'\x92$I\x92$I(@'
p2505
tp2506
Rp2507
ag246
(g249
S'\xf1\xf0\xf0\xf0\xf0\xf0*@'
p2508
tp2509
Rp2510
ag246
(g249
S'\xab\xaa\xaa\xaa\xaa\xaa)@'
p2511
tp2512
Rp2513
ag246
(g249
S'UUUUUU\x19@'
p2514
tp2515
Rp2516
ag246
(g249
S'\x00\x00\x00\x00\x00\x00)@'
p2517
tp2518
Rp2519
ag246
(g249
S'n\xdb\xb6m\xdb\xb66@'
p2520
tp2521
Rp2522
ag246
(g249
S'\xab\xaa\xaa\xaa\xaa\xaa(@'
p2523
tp2524
Rp2525
ag246
(g249
S'\x00\x00\x00\x00\x00\x005@'
p2526
tp2527
Rp2528
ag246
(g249
S'\xab\xaa\xaa\xaa\xaa\xaa\x1a@'
p2529
tp2530
Rp2531
ag246
(g249
S'\xab\xaa\xaa\xaa\xaa\xaa1@'
p2532
tp2533
Rp2534
ag246
(g249
S'\x00\x00\x00\x00\x00@9@'
p2535
tp2536
Rp2537
ag246
(g249
S'\x00\x00\x00\x00\x00\x00*@'
p2538
tp2539
Rp2540
ag246
(g249
S'\x00\x00\x00\x00\x00\x00#@'
p2541
tp2542
Rp2543
ag246
(g249
S'\x00\x00\x00\x00\x00\x00-@'
p2544
tp2545
Rp2546
ag246
(g249
S'UUUUUU!@'
p2547
tp2548
Rp2549
ag246
(g249
S'\x00\x00\x00\x00\x00\x003@'
p2550
tp2551
Rp2552
ag246
(g249
S'\x00\x00\x00\x00\x00\x00$@'
p2553
tp2554
Rp2555
ag246
(g249
S'\x00\x00\x00\x00\x00\x00(@'
p2556
tp2557
Rp2558
ag246
(g249
S'/\xba\xe8\xa2\x8b.(@'
p2559
tp2560
Rp2561
ag246
(g249
S'\x00\x00\x00\x00\x00\x002@'
p2562
tp2563
Rp2564
ag246
(g249
S'ffffff"@'
p2565
tp2566
Rp2567
ag246
(g249
S'UUUUUU/@'
p2568
tp2569
Rp2570
ag246
(g249
S'UUUUUU\x19@'
p2571
tp2572
Rp2573
ag246
(g249
S'UUUUUU*@'
p2574
tp2575
Rp2576
ag246
(g249
S'\x00\x00\x00\x00\x00@1@'
p2577
tp2578
Rp2579
ag246
(g249
S'\x00\x00\x00\x00\x00\x00/@'
p2580
tp2581
Rp2582
ag246
(g249
S'\xa3\x8b.\xba\xe8\xa2-@'
p2583
tp2584
Rp2585
ag246
(g249
S'UUUUU\xd5&@'
p2586
tp2587
Rp2588
ag246
(g249
S'3333338@'
p2589
tp2590
Rp2591
ag246
(g249
S'\x00\x00\x00\x00\x00\x00,@'
p2592
tp2593
Rp2594
ag246
(g249
S'\xab\xaa\xaa\xaa\xaa\xaa+@'
p2595
tp2596
Rp2597
ag246
(g249
S'\x00\x00\x00\x00\x00\x008@'
p2598
tp2599
Rp2600
ag246
(g249
S';\xb1\x13;\xb1\x130@'
p2601
tp2602
Rp2603
ag246
(g249
S'ffffff&@'
p2604
tp2605
Rp2606
ag246
(g249
S'\x00\x00\x00\x00\x00\x00.@'
p2607
tp2608
Rp2609
ag246
(g249
S'\x00\x00\x00\x00\x00@*@'
p2610
tp2611
Rp2612
ag246
(g249
S'3333335@'
p2613
tp2614
Rp2615
ag246
(g249
S'UUUUUU2@'
p2616
tp2617
Rp2618
ag246
(g249
S'\x00\x00\x00\x00\x00\x00(@'
p2619
tp2620
Rp2621
ag246
(g249
S'\x00\x00\x00\x00\x00\x00&@'
p2622
tp2623
Rp2624
ag246
(g249
S'\xab\xaa\xaa\xaa\xaa\xaa0@'
p2625
tp2626
Rp2627
ag246
(g249
S'\x00\x00\x00\x00\x00\x00/@'
p2628
tp2629
Rp2630
ag246
(g249
S'UUUUUU-@'
p2631
tp2632
Rp2633
ag246
(g249
S'\x00\x00\x00\x00\x00\x008@'
p2634
tp2635
Rp2636
ag246
(g249
S'UUUUUU3@'
p2637
tp2638
Rp2639
ag246
(g249
S'\x00\x00\x00\x00\x00\x002@'
p2640
tp2641
Rp2642
ag246
(g249
S'ffffff$@'
p2643
tp2644
Rp2645
ag246
(g249
S'\xa3\x8b.\xba\xe8\xa2+@'
p2646
tp2647
Rp2648
ag246
(g249
S'\x00\x00\x00\x00\x00\x00(@'
p2649
tp2650
Rp2651
ag246
(g249
S'n\xdb\xb6m\xdb\xb6-@'
p2652
tp2653
Rp2654
ag246
(g249
S'\x9a\x99\x99\x99\x99\x99?@'
p2655
tp2656
Rp2657
ag246
(g249
S'\x00\x00\x00\x00\x00\x007@'
p2658
tp2659
Rp2660
ag246
(g249
S'\x00\x00\x00\x00\x00\x00\x10@'
p2661
tp2662
Rp2663
ag246
(g249
S'\x9a\x99\x99\x99\x99\x99-@'
p2664
tp2665
Rp2666
ag246
(g249
S'\x00\x00\x00\x00\x00\x80&@'
p2667
tp2668
Rp2669
ag246
(g249
S'y\r\xe55\x94\xd7(@'
p2670
tp2671
Rp2672
ag246
(g249
S'\x8e\xe38\x8e\xe38/@'
p2673
tp2674
Rp2675
ag246
(g249
S'\xab\xaa\xaa\xaa\xaa\xaa&@'
p2676
tp2677
Rp2678
ag246
(g249
S'\x00\x00\x00\x00\x00\x00,@'
p2679
tp2680
Rp2681
ag246
(g249
S'\x00\x00\x00\x00\x00\x807@'
p2682
tp2683
Rp2684
ag246
(g249
S'UUUUU\x151@'
p2685
tp2686
Rp2687
ag246
(g249
S'\xab\xaa\xaa\xaa\xaa\xaa"@'
p2688
tp2689
Rp2690
ag246
(g249
S"333333'@"
p2691
tp2692
Rp2693
ag246
(g249
S'\x8e\xe38\x8e\xe38<@'
p2694
tp2695
Rp2696
ag246
(g249
S'UUUUU\x153@'
p2697
tp2698
Rp2699
ag246
(g249
S'\xab\xaa\xaa\xaa\xaa\xaa&@'
p2700
tp2701
Rp2702
ag246
(g249
S'\xba\xbb\xbb\xbb\xbb\xbb\xdb\xbf'
p2703
tp2704
Rp2705
ag246
(g249
S'\x00\x00\x00\x00\x00\x00\x00\x00'
p2706
tp2707
Rp2708
ag246
(g249
S'\x00\x00\x00\x00\x00\x00\xc8?'
p2709
tp2710
Rp2711
ag246
(g249
S'\xdb\xb6m\xdb\xb6m\xcb?'
p2712
tp2713
Rp2714
ag246
(g249
S'\x9a\x99\x99\x99\x99\x99\xd9?'
p2715
tp2716
Rp2717
ag246
(g249
S'\x9a\x99\x99\x99\x99\x99\xc9\xbf'
p2718
tp2719
Rp2720
ag246
(g249
S'\x00\x00\x00\x00\x00\x00\xc0\xbf'
p2721
tp2722
Rp2723
ag246
(g249
S'\x00\x00\x00\x00\x00\x00\x00\x00'
p2724
tp2725
Rp2726
ag246
(g249
S'\x90\x99\x99\x99\x99\x99\xa9\xbf'
p2727
tp2728
Rp2729
ag246
(g249
S'\x00\x00\x00\x00\x00\x00\xd0\xbf'
p2730
tp2731
Rp2732
ag246
(g249
S'333333\xe3\xbf'
p2733
tp2734
Rp2735
ag246
(g249
S'\x00\x00\x00\x00\x00\x00\x00\x00'
p2736
tp2737
Rp2738
ag246
(g249
S'\x00\x00\x00\x00\x00\x00\x00\x00'
p2739
tp2740
Rp2741
ag246
(g249
S'\x00\x00\x00\x00\x00\x00\x00\x00'
p2742
tp2743
Rp2744
ag246
(g249
S'z\x14\xaeG\xe1z\xa4\xbf'
p2745
tp2746
Rp2747
ag246
(g249
S'*A\x9e\x12\xe4)\xc9?'
p2748
tp2749
Rp2750
ag246
(g249
S'\x90\xa7\x04yJ\x90\xd7?'
p2751
tp2752
Rp2753
ag246
(g249
S'S\xb8\x1e\x85\xebQ\xb8?'
p2754
tp2755
Rp2756
ag246
(g249
S'\x9a\x99\x99\x99\x99\x99\xc9\xbf'
p2757
tp2758
Rp2759
ag246
(g249
S'\x00\x00\x00\x00\x00\x00\x00\x00'
p2760
tp2761
Rp2762
ag246
(g249
S'\x95>\xe9\x93>\xe9\xc3\xbf'
p2763
tp2764
Rp2765
ag246
(g249
S'\x00\x00\x00\x00\x00\x00\xb0\xbf'
p2766
tp2767
Rp2768
ag246
(g249
S'\xb8\x1e\x85\xebQ\xb8\xbe?'
p2769
tp2770
Rp2771
ag246
(g249
S'\x00\x00\x00\x00\x00\x00\xd0?'
p2772
tp2773
Rp2774
ag246
(g249
S'\x9a\x99\x99\x99\x99\x99\xc9?'
p2775
tp2776
Rp2777
ag246
(g249
S'\x00\x00\x00\x00\x00\x00\x00\x00'
p2778
tp2779
Rp2780
ag246
(g249
S'\x00\x00\x00\x00\x00\x00\x00\x00'
p2781
tp2782
Rp2783
ag246
(g249
S'\x9a\x99\x99\x99\x99\x99\xd9\xbf'
p2784
tp2785
Rp2786
ag246
(g249
S'\x9a\x99\x99\x99\x99\x99\xc9?'
p2787
tp2788
Rp2789
ag246
(g249
S'\x00\x00\x00\x00\x00\x00\x00\x00'
p2790
tp2791
Rp2792
ag246
(g249
S'\x00\x00\x00\x00\x00\x00\xe0?'
p2793
tp2794
Rp2795
ag246
(g249
S'\x9a\x99\x99\x99\x99\x99\xd9?'
p2796
tp2797
Rp2798
ag246
(g249
S'\x9a\x99\x99\x99\x99\x99\xb9\xbf'
p2799
tp2800
Rp2801
ag246
(g249
S'{\x14\xaeG\xe1z\xa4\xbf'
p2802
tp2803
Rp2804
ag246
(g249
S'\x00\x00\x00\x00\x00\x00\x00\x00'
p2805
tp2806
Rp2807
ag246
(g249
S'\x00\x00\x00\x00\x00\x00\xd0\xbf'
p2808
tp2809
Rp2810
ag246
(g249
S'\x00\x00\x00\x00\x00\x00\x00\x00'
p2811
tp2812
Rp2813
ag246
(g249
S'\x9a\x99\x99\x99\x99\x99\xc9?'
p2814
tp2815
Rp2816
ag246
(g249
S'\x00\x00\x00\x00\x00\x00\x00\x00'
p2817
tp2818
Rp2819
ag246
(g249
S'\x98\x99\x99\x99\x99\x99\x99\xbf'
p2820
tp2821
Rp2822
ag246
(g249
S'efffff\xca\xbf'
p2823
tp2824
Rp2825
ag246
(g249
S'\xcd\xcc\xcc\xcc\xcc\xcc\xcc?'
p2826
tp2827
Rp2828
ag246
(g249
S'{\x14\xaeG\xe1z\xc4?'
p2829
tp2830
Rp2831
ag246
(g249
S'\x9a\x99\x99\x99\x99\x99\xd9\xbf'
p2832
tp2833
Rp2834
ag246
(g249
S'\x00\x00\x00\x00\x00\x00\x00\x00'
p2835
tp2836
Rp2837
ag246
(g249
S'333333\xe3?'
p2838
tp2839
Rp2840
ag246
(g249
S'\x00\x00\x00\x00\x00\x00\x00\x00'
p2841
tp2842
Rp2843
ag246
(g249
S'\x9a\x99\x99\x99\x99\x99\xd9\xbf'
p2844
tp2845
Rp2846
ag246
(g249
S'\x9a\x99\x99\x99\x99\x99\xd1\xbf'
p2847
tp2848
Rp2849
ag246
(g249
S'\x9a\x99\x99\x99\x99\x99\xc9?'
p2850
tp2851
Rp2852
ag246
(g249
S'\x9a\x99\x99\x99\x99\x99\xb9?'
p2853
tp2854
Rp2855
ag246
(g249
S'\x00\x00\x00\x00\x00\x00\xd0?'
p2856
tp2857
Rp2858
ag246
(g249
S'\xcd\xcc\xcc\xcc\xcc\xcc\xe4?'
p2859
tp2860
Rp2861
ag246
(g249
S' O\t\xf2\x94 \xcf?'
p2862
tp2863
Rp2864
ag246
(g249
S'\x88\x88\x88\x88\x88\x88\xb0?'
p2865
tp2866
Rp2867
ag246
(g249
S'+\\\x8f\xc2\xf5(\xac?'
p2868
tp2869
Rp2870
ag246
(g249
S'\x9a\x99\x99\x99\x99\x99\xe9?'
p2871
tp2872
Rp2873
ag246
(g249
S'\x9a\x99\x99\x99\x99\x99\xa9?'
p2874
tp2875
Rp2876
ag246
(g249
S'333333\xe3?'
p2877
tp2878
Rp2879
ag246
(g249
S'UUUUUU\xd5?'
p2880
tp2881
Rp2882
ag246
(g249
S'333333\xe3?'
p2883
tp2884
Rp2885
ag246
(g249
S'\x14l\xc1\x16l\xc1\x86?'
p2886
tp2887
Rp2888
ag246
(g249
S'\x00\x00\x00\x00\x00\x00\xb0\xbf'
p2889
tp2890
Rp2891
ag246
(g249
S'\x9a\x99\x99\x99\x99\x99\xc9?'
p2892
tp2893
Rp2894
ag246
(g249
S'\xdc\xdd\xdd\xdd\xdd\xdd\xcd\xbf'
p2895
tp2896
Rp2897
ag246
(g249
S'\x9a\x99\x99\x99\x99\x99\xc9?'
p2898
tp2899
Rp2900
ag246
(g249
S'\xe7\xd9P\xd7\x9bX\xc6?'
p2901
tp2902
Rp2903
ag246
(g249
S'\x98\x99\x99\x99\x99\x99\x99?'
p2904
tp2905
Rp2906
ag246
(g249
S'\x92$I\x92$I\xc2?'
p2907
tp2908
Rp2909
ag246
(g249
S'\x00\x00\x00\x00\x00\x00\x00\x00'
p2910
tp2911
Rp2912
ag246
(g249
S'333333\xe3?'
p2913
tp2914
Rp2915
ag246
(g249
S'333333\xe3\xbf'
p2916
tp2917
Rp2918
ag246
(g249
S'\xdd\xdd\xdd\xdd\xdd\xdd\xbd?'
p2919
tp2920
Rp2921
ag246
(g249
S'\x18\x86a\x18\x86a\xc8?'
p2922
tp2923
Rp2924
ag246
(g249
S'\x00\x00\x00\x00\x00\x00\x00\x00'
p2925
tp2926
Rp2927
ag246
(g249
S'\x00\x00\x00\x00\x00\x00\xe0?'
p2928
tp2929
Rp2930
ag246
(g249
S'333333\xe3?'
p2931
tp2932
Rp2933
ag246
(g249
S'\x00\x00\x00\x00\x00\x00\x00\x00'
p2934
tp2935
Rp2936
ag246
(g249
S'\x00\x00\x00\x00\x00\x00\x00\x00'
p2937
tp2938
Rp2939
ag246
(g249
S'ffffff\xd6?'
p2940
tp2941
Rp2942
ag246
(g249
S'333333\xd3?'
p2943
tp2944
Rp2945
ag246
(g249
S'\x00\x00\x00\x00\x00\x00\xf0?'
p2946
tp2947
Rp2948
ag246
(g249
S'433333\xb3\xbf'
p2949
tp2950
Rp2951
ag246
(g249
S'\x00\x00\x00\x00\x00\x00\x00\x00'
p2952
tp2953
Rp2954
ag246
(g249
S'j\x03\x9d6\xd0i\xb3?'
p2955
tp2956
Rp2957
ag246
(g249
S'\x02\x00\x00\x00\x00\x00\xb0?'
p2958
tp2959
Rp2960
ag246
(g249
S'UUUUUU\xc5\xbf'
p2961
tp2962
Rp2963
ag246
(g249
S'\x92$I\x92$I\xa2?'
p2964
tp2965
Rp2966
ag246
(g249
S'433333\xd3\xbf'
p2967
tp2968
Rp2969
ag246
(g249
S'""""""\xd0\xbf'
p2970
tp2971
Rp2972
ag246
(g249
S'\xaa\xaa\xaa\xaa\xaa\xaa\xc6?'
p2973
tp2974
Rp2975
ag246
(g249
S'k\xdf\xb0\xf6\rk\xcf?'
p2976
tp2977
Rp2978
ag246
(g249
S'\x00\x00\x00\x00\x00\x00\x00\x00'
p2979
tp2980
Rp2981
ag246
(g249
S'\x00\x00\x00\x00\x00\x00\x00\x00'
p2982
tp2983
Rp2984
ag246
(g249
S'&\x9bl\xb2\xc9&\xbb?'
p2985
tp2986
Rp2987
ag246
(g249
S'\x00\x00\x00\x00\x00\x00\xc0\xbf'
p2988
tp2989
Rp2990
ag246
(g249
S'\xdb\xb6m\xdb\xb6m\xbb?'
p2991
tp2992
Rp2993
ag246
(g249
S'\x00\x00\x00\x00\x00\x00\x00\x00'
p2994
tp2995
Rp2996
ag246
(g249
S't\xd1E\x17]t\xc1?'
p2997
tp2998
Rp2999
ag246
(g249
S'\x00\x00\x00\x00\x00\x00\x00\x00'
p3000
tp3001
Rp3002
ag246
(g249
S'\x00\x00\x00\x00\x00\x00\x00\x00'
p3003
tp3004
Rp3005
ag246
(g249
S'\x00\x00\x00\x00\x00\x00\x00\x00'
p3006
tp3007
Rp3008
ag246
(g249
S'\x00\x00\x00\x00\x00\x00\x00\x00'
p3009
tp3010
Rp3011
ag246
(g249
S'\x00\x00\x00\x00\x00\x00\x00\x00'
p3012
tp3013
Rp3014
ag246
(g249
S'\x00\x00\x00\x00\x00\x00\x00\x00'
p3015
tp3016
Rp3017
ag246
(g249
S'\x9a\x99\x99\x99\x99\x99\xb9\xbf'
p3018
tp3019
Rp3020
ag246
(g249
S'\x9a\x99\x99\x99\x99\x99\xd1?'
p3021
tp3022
Rp3023
ag246
(g249
S'B\x1d\xd4A\x1d\xd4\xc1?'
p3024
tp3025
Rp3026
ag246
(g249
S'\x9a\x99\x99\x99\x99\x99\xb9?'
p3027
tp3028
Rp3029
ag246
(g249
S'333333\xd3?'
p3030
tp3031
Rp3032
ag246
(g249
S'\x00\x00\x00\x00\x00\x00\x00\x00'
p3033
tp3034
Rp3035
ag246
(g249
S'\x00\x00\x00\x00\x00\x00\xf0?'
p3036
tp3037
Rp3038
ag246
(g249
S'\x00\x00\x00\x00\x00\x00\x00\x00'
p3039
tp3040
Rp3041
ag246
(g249
S'\x00\x00\x00\x00\x00\x00\x00\x00'
p3042
tp3043
Rp3044
ag246
(g249
S'\x00\x00\x00\x00\x00\x00\xd0?'
p3045
tp3046
Rp3047
ag246
(g249
S'\x00\x00\x00\x00\x00\x00\xd8\xbf'
p3048
tp3049
Rp3050
ag246
(g249
S'\x00\x00\x00\x00\x00\x00\x00\x00'
p3051
tp3052
Rp3053
ag246
(g249
S'\x9a\x99\x99\x99\x99\x99\xe9?'
p3054
tp3055
Rp3056
ag246
(g249
S'\x00\x00\x00\x00\x00\x00\x00\x00'
p3057
tp3058
Rp3059
ag246
(g249
S'\x9a\x99\x99\x99\x99\x99\xb9?'
p3060
tp3061
Rp3062
ag246
(g249
S'\x1d\xd4A\x1d\xd4A\xcd\xbf'
p3063
tp3064
Rp3065
ag246
(g249
S'\x00\x00\x00\x00\x00\x00\xe0?'
p3066
tp3067
Rp3068
ag246
(g249
S'\xe3V(n\x85\xe2\xc6?'
p3069
tp3070
Rp3071
ag246
(g249
S'\x00\x00\x00\x00\x00\x00\x00\x00'
p3072
tp3073
Rp3074
ag246
(g249
S'\x9a\x99\x99\x99\x99\x99\xb9?'
p3075
tp3076
Rp3077
ag246
(g249
S'(\x9bl\xb2\xc9&\x9b\xbf'
p3078
tp3079
Rp3080
ag246
(g249
S'\x00\x00\x00\x00\x00\x00\x00\x00'
p3081
tp3082
Rp3083
ag246
(g249
S'\x00\x00\x00\x00\x00\x00\x00\x00'
p3084
tp3085
Rp3086
ag246
(g249
S'\x9a\x99\x99\x99\x99\x99\xb9?'
p3087
tp3088
Rp3089
ag246
(g249
S'\x00\x00\x00\x00\x00\x00\x00\x00'
p3090
tp3091
Rp3092
ag246
(g249
S'333333\xc3?'
p3093
tp3094
Rp3095
ag246
(g249
S'\xdd\xb6m\xdb\xb6m\xab?'
p3096
tp3097
Rp3098
ag246
(g249
S'\x9a\x99\x99\x99\x99\x99\xb9?'
p3099
tp3100
Rp3101
ag246
(g249
S'\x9a\x99\x99\x99\x99\x99\xd1?'
p3102
tp3103
Rp3104
ag246
(g249
S'\xdb\xb6m\xdb\xb6m\xdb?'
p3105
tp3106
Rp3107
ag246
(g249
S'\x00\x00\x00\x00\x00\x00\x00\x00'
p3108
tp3109
Rp3110
ag246
(g249
S'xwwwww\xdf?'
p3111
tp3112
Rp3113
ag246
(g249
S'\x00\x00\x00\x00\x00\x00\xb4\xbf'
p3114
tp3115
Rp3116
ag246
(g249
S'333333\xe3?'
p3117
tp3118
Rp3119
ag246
(g249
S'\xff\xff\xff\xff\xff\xff\xd7?'
p3120
tp3121
Rp3122
ag246
(g249
S'\x88\x88\x88\x88\x88\x88\xd8?'
p3123
tp3124
Rp3125
ag246
(g249
S'[\xb0\x05[\xb0\x05\xcb?'
p3126
tp3127
Rp3128
ag246
(g249
S'\x00\x00\x00\x00\x00\x00\xb0\xbf'
p3129
tp3130
Rp3131
ag246
(g249
S'\xf0\xee\xee\xee\xee\xee\xda?'
p3132
tp3133
Rp3134
ag246
(g249
S'333333\xe3?'
p3135
tp3136
Rp3137
ag246
(g249
S'333333\xd3?'
p3138
tp3139
Rp3140
ag246
(g249
S'\x00\x00\x00\x00\x00\x00\x00\x00'
p3141
tp3142
Rp3143
ag246
(g249
S'\x9a\x99\x99\x99\x99\x99\xb9?'
p3144
tp3145
Rp3146
ag246
(g249
S'\x00\x00\x00\x00\x00\x00\x00\x00'
p3147
tp3148
Rp3149
ag246
(g249
S'\x00\x00\x00\x00\x00\x00\x00\x00'
p3150
tp3151
Rp3152
ag246
(g249
S'\x00\x00\x00\x00\x00\x00\x00\x00'
p3153
tp3154
Rp3155
ag246
(g249
S'\x00\x00\x00\x00\x00\x00\xb8?'
p3156
tp3157
Rp3158
ag246
(g249
S'\x00\x00\x00\x00\x00\x00\xe0?'
p3159
tp3160
Rp3161
ag246
(g249
S'\x99\x99\x99\x99\x99\x99\xd9?'
p3162
tp3163
Rp3164
ag246
(g249
S'\xdd\xdd\xdd\xdd\xdd\xdd\xcd?'
p3165
tp3166
Rp3167
ag246
(g249
S'\xdd\xdd\xdd\xdd\xdd\xdd\xbd?'
p3168
tp3169
Rp3170
ag246
(g249
S'\x00\x00\x00\x00\x00\x00\x00\x00'
p3171
tp3172
Rp3173
ag246
(g249
S'\x00\x00\x00\x00\x00\x00\x00\x00'
p3174
tp3175
Rp3176
ag246
(g249
S'\x9a\x99\x99\x99\x99\x99\xa9?'
p3177
tp3178
Rp3179
ag246
(g249
S'\xcd\xcc\xcc\xcc\xcc\xcc\xe4\xbf'
p3180
tp3181
Rp3182
ag246
(g249
S'\xcd\xcc\xcc\xcc\xcc\xcc\xdc?'
p3183
tp3184
Rp3185
ag246
(g249
S'\x00\x00\x00\x00\x00\x00\x00\x00'
p3186
tp3187
Rp3188
ag246
(g249
S'\x00\x00\x00\x00\x00\x00\x00\x00'
p3189
tp3190
Rp3191
ag246
(g249
S'\x00\x00\x00\x00\x00\x00\xd0?'
p3192
tp3193
Rp3194
ag246
(g249
S'\x00\x00\x00\x00\x00\x00\xe0?'
p3195
tp3196
Rp3197
ag246
(g249
S'/\xc95\xe8\xb1\xd8\xa3?'
p3198
tp3199
Rp3200
ag246
(g249
S'\x00\x00\x00\x00\x00\x00\x00\x00'
p3201
tp3202
Rp3203
ag246
(g249
S'\x00\x00\x00\x00\x00\x00\xf0\xbf'
p3204
tp3205
Rp3206
ag246
(g249
S'\x00\x00\x00\x00\x00\x00\x00\x00'
p3207
tp3208
Rp3209
ag246
(g249
S'UUUUUU\xc5\xbf'
p3210
tp3211
Rp3212
ag246
(g249
S'i\xb2\xc9&\x9bl\xb2\xbf'
p3213
tp3214
Rp3215
ag246
(g249
S'\x00\x00\x00\x00\x00\x00\x00\x00'
p3216
tp3217
Rp3218
ag246
(g249
S'\x15\x11\x11\x11\x11\x11\x91\xbf'
p3219
tp3220
Rp3221
ag246
(g249
S'\x00\x00\x00\x00\x00\x00\xe0?'
p3222
tp3223
Rp3224
ag246
(g249
S'\xe2z\x14\xaeG\xe1\xd2?'
p3225
tp3226
Rp3227
ag246
(g249
S'\x9a\x99\x99\x99\x99\x99\xc9?'
p3228
tp3229
Rp3230
ag246
(g249
S'\x00\x00\x00\x00\x00\x00\x00\x00'
p3231
tp3232
Rp3233
ag246
(g249
S'\x9a\x99\x99\x99\x99\x99\xb9\xbf'
p3234
tp3235
Rp3236
ag246
(g249
S'533333\x93\xbf'
p3237
tp3238
Rp3239
ag246
(g249
S'\x99\x99\x99\x99\x99\x99\xa9\xbf'
p3240
tp3241
Rp3242
ag246
(g249
S'\x00\x00\x00\x00\x00\x00\x00\x00'
p3243
tp3244
Rp3245
ag246
(g249
S'wwwwww\xd7?'
p3246
tp3247
Rp3248
ag246
(g249
S'\x00\x00\x00\x00\x00\x00\x00\x00'
p3249
tp3250
Rp3251
ag246
(g249
S'\x00\x00\x00\x00\x00\x00\xe0?'
p3252
tp3253
Rp3254
ag246
(g249
S'%I\x92$I\x92\xe4?'
p3255
tp3256
Rp3257
ag246
(g249
S'333333\xe3?'
p3258
tp3259
Rp3260
ag246
(g249
S'ffffff\xe0?'
p3261
tp3262
Rp3263
ag246
(g249
S'\x00\x00\x00\x00\x00\x00\xd8?'
p3264
tp3265
Rp3266
ag246
(g249
S'\x00\x00\x00\x00\x00\x00\x00\x00'
p3267
tp3268
Rp3269
ag246
(g249
S'\x11\x11\x11\x11\x11\x11\xe9?'
p3270
tp3271
Rp3272
ag246
(g249
S'\x00\x00\x00\x00\x00\x00\xe8?'
p3273
tp3274
Rp3275
ag246
(g249
S'\xcd\xcc\xcc\xcc\xcc\xcc\xec?'
p3276
tp3277
Rp3278
ag246
(g249
S'\x00\x00\x00\x00\x00\x00\x00\x00'
p3279
tp3280
Rp3281
ag246
(g249
S'\x00\x00\x00\x00\x00\x00\x00\x00'
p3282
tp3283
Rp3284
ag246
(g249
S'\x00\x00\x00\x00\x00\x00\x00\x00'
p3285
tp3286
Rp3287
ag246
(g249
S'333333\xd3?'
p3288
tp3289
Rp3290
ag246
(g249
S'\xac}\xc3\xda7\xac\xd9?'
p3291
tp3292
Rp3293
ag246
(g249
S'\xac}\xc3\xda7\xac\xe5?'
p3294
tp3295
Rp3296
ag246
(g249
S'm\xa0\xd3\x06:m\xe0?'
p3297
tp3298
Rp3299
ag246
(g249
S'\x9a\x99\x99\x99\x99\x99\xd9?'
p3300
tp3301
Rp3302
ag246
(g249
S'\x00\x00\x00\x00\x00\x00\x00\x00'
p3303
tp3304
Rp3305
ag246
(g249
S"\xd3'}\xd2'}\xd2?"
p3306
tp3307
Rp3308
ag246
(g249
S'\x00\x00\x00\x00\x00\x00\xdc?'
p3309
tp3310
Rp3311
ag246
(g249
S'\xd6\xa3p=\n\xd7\xc3?'
p3312
tp3313
Rp3314
ag246
(g249
S'\x00\x00\x00\x00\x00\x00\xe4?'
p3315
tp3316
Rp3317
ag246
(g249
S'\x9a\x99\x99\x99\x99\x99\xc9?'
p3318
tp3319
Rp3320
ag246
(g249
S'\x00\x00\x00\x00\x00\x00\x00\x00'
p3321
tp3322
Rp3323
ag246
(g249
S'\x00\x00\x00\x00\x00\x00\x00\x00'
p3324
tp3325
Rp3326
ag246
(g249
S'ffffff\xe6?'
p3327
tp3328
Rp3329
ag246
(g249
S'ffffff\xe6?'
p3330
tp3331
Rp3332
ag246
(g249
S'\x9a\x99\x99\x99\x99\x99\xd9?'
p3333
tp3334
Rp3335
ag246
(g249
S'\xcd\xcc\xcc\xcc\xcc\xcc\xe4?'
p3336
tp3337
Rp3338
ag246
(g249
S'\x00\x00\x00\x00\x00\x00\xe0?'
p3339
tp3340
Rp3341
ag246
(g249
S'\x9a\x99\x99\x99\x99\x99\xd9?'
p3342
tp3343
Rp3344
ag246
(g249
S'z\x14\xaeG\xe1z\xd4?'
p3345
tp3346
Rp3347
ag246
(g249
S'\x9a\x99\x99\x99\x99\x99\xb9?'
p3348
tp3349
Rp3350
ag246
(g249
S'\x00\x00\x00\x00\x00\x00\xe4?'
p3351
tp3352
Rp3353
ag246
(g249
S'\x00\x00\x00\x00\x00\x00\x00\x00'
p3354
tp3355
Rp3356
ag246
(g249
S'ffffff\xd6?'
p3357
tp3358
Rp3359
ag246
(g249
S'\x00\x00\x00\x00\x00\x00\x00\x00'
p3360
tp3361
Rp3362
ag246
(g249
S'\xf4I\x9f\xf4I\x9f\xe4?'
p3363
tp3364
Rp3365
ag246
(g249
S'>\xe9\x93>\xe9\x93\xe4?'
p3366
tp3367
Rp3368
ag246
(g249
S'\x9a\x99\x99\x99\x99\x99\xe5?'
p3369
tp3370
Rp3371
ag246
(g249
S'G\xe1z\x14\xaeG\xe1?'
p3372
tp3373
Rp3374
ag246
(g249
S'333333\xe3?'
p3375
tp3376
Rp3377
ag246
(g249
S'\x00\x00\x00\x00\x00\x00\x00\x00'
p3378
tp3379
Rp3380
ag246
(g249
S'\x00\x00\x00\x00\x00\x00\xf0?'
p3381
tp3382
Rp3383
ag246
(g249
S'\x00\x00\x00\x00\x00\x00\x00\x00'
p3384
tp3385
Rp3386
ag246
(g249
S'333333\xe3?'
p3387
tp3388
Rp3389
ag246
(g249
S'\xcd\xcc\xcc\xcc\xcc\xcc\xe8?'
p3390
tp3391
Rp3392
ag246
(g249
S'\x00\x00\x00\x00\x00\x00\xd0?'
p3393
tp3394
Rp3395
ag246
(g249
S'\x9a\x99\x99\x99\x99\x99\xc9?'
p3396
tp3397
Rp3398
ag246
(g249
S'\x00\x00\x00\x00\x00\x00\xe8?'
p3399
tp3400
Rp3401
ag246
(g249
S'\xcd\xcc\xcc\xcc\xcc\xcc\xec?'
p3402
tp3403
Rp3404
ag246
(g249
S'yJ\x90\xa7\x04y\xe2?'
p3405
tp3406
Rp3407
ag246
(g249
S'\x99\x99\x99\x99\x99\x99\xdb?'
p3408
tp3409
Rp3410
ag246
(g249
S'\x1b\xe8\xb4\x81N\x1b\xd0?'
p3411
tp3412
Rp3413
ag246
(g249
S'\x00\x00\x00\x00\x00\x00\xe8?'
p3414
tp3415
Rp3416
ag246
(g249
S'R\xb8\x1e\x85\xebQ\xd0?'
p3417
tp3418
Rp3419
ag246
(g249
S'\x00\x00\x00\x00\x00\x00\xf0?'
p3420
tp3421
Rp3422
ag246
(g249
S'xwwwww\xd7?'
p3423
tp3424
Rp3425
ag246
(g249
S'\x9a\x99\x99\x99\x99\x99\xe1?'
p3426
tp3427
Rp3428
ag246
(g249
S'\x8e\xe38\x8e\xe38\xd6?'
p3429
tp3430
Rp3431
ag246
(g249
S'\x00\x00\x00\x00\x00\x00\xd0?'
p3432
tp3433
Rp3434
ag246
(g249
S'\x9a\x99\x99\x99\x99\x99\xd9?'
p3435
tp3436
Rp3437
ag246
(g249
S'\xfa\xa4O\xfa\xa4O\xd2?'
p3438
tp3439
Rp3440
ag246
(g249
S'\x9a\x99\x99\x99\x99\x99\xd9?'
p3441
tp3442
Rp3443
ag246
(g249
S'=\x02\xbf\\~\xaf\xda?'
p3444
tp3445
Rp3446
ag246
(g249
S'\x9a\x99\x99\x99\x99\x99\xd1?'
p3447
tp3448
Rp3449
ag246
(g249
S'$I\x92$I\x92\xe8?'
p3450
tp3451
Rp3452
ag246
(g249
S'\x00\x00\x00\x00\x00\x00\x00\x00'
p3453
tp3454
Rp3455
ag246
(g249
S'\x00\x00\x00\x00\x00\x00\xf0?'
p3456
tp3457
Rp3458
ag246
(g249
S'ffffff\xe6?'
p3459
tp3460
Rp3461
ag246
(g249
S'UUUUUU\xd3?'
p3462
tp3463
Rp3464
ag246
(g249
S'<\xcf\xf3<\xcf\xf3\xdc?'
p3465
tp3466
Rp3467
ag246
(g249
S'\x00\x00\x00\x00\x00\x00\x00\x00'
p3468
tp3469
Rp3470
ag246
(g249
S'\x00\x00\x00\x00\x00\x00\xe0?'
p3471
tp3472
Rp3473
ag246
(g249
S'DDDDDD\xe4?'
p3474
tp3475
Rp3476
ag246
(g249
S'\x00\x00\x00\x00\x00\x00\x00\x00'
p3477
tp3478
Rp3479
ag246
(g249
S'\x00\x00\x00\x00\x00\x00\x00\x00'
p3480
tp3481
Rp3482
ag246
(g249
S'\x00\x00\x00\x00\x00\x00\xed?'
p3483
tp3484
Rp3485
ag246
(g249
S'\x9a\x99\x99\x99\x99\x99\xd9?'
p3486
tp3487
Rp3488
ag246
(g249
S'333333\xd3?'
p3489
tp3490
Rp3491
ag246
(g249
S'\x00\x00\x00\x00\x00\x00\xf0?'
p3492
tp3493
Rp3494
ag246
(g249
S'\x00\x00\x00\x00\x00\x00\x00\x00'
p3495
tp3496
Rp3497
ag246
(g249
S'\xd6\xa3p=\n\xd7\xdf?'
p3498
tp3499
Rp3500
ag246
(g249
S'\x9a\x99\x99\x99\x99\x99\xe5?'
p3501
tp3502
Rp3503
ag246
(g249
S'\x00\x00\x00\x00\x00\x00\xe0?'
p3504
tp3505
Rp3506
ag246
(g249
S'\xdb\xb6m\xdb\xb6m\xe3?'
p3507
tp3508
Rp3509
ag246
(g249
S'ffffff\xe6?'
p3510
tp3511
Rp3512
ag246
(g249
S'\xa5O\xfa\xa4O\xfa\xe3?'
p3513
tp3514
Rp3515
ag246
(g249
S'\xaa\xaa\xaa\xaa\xaa\xaa\xd8?'
p3516
tp3517
Rp3518
ag246
(g249
S'\xd9d\x93M6\xd9\xe4?'
p3519
tp3520
Rp3521
ag246
(g249
S'\x00\x00\x00\x00\x00\x00\x00\x00'
p3522
tp3523
Rp3524
ag246
(g249
S'\x00\x00\x00\x00\x00\x00\x00\x00'
p3525
tp3526
Rp3527
ag246
(g249
S'\xab\xaa\xaa\xaa\xaa\xaa\xe6?'
p3528
tp3529
Rp3530
ag246
(g249
S'\x00\x00\x00\x00\x00\x00\xd8?'
p3531
tp3532
Rp3533
ag246
(g249
S'\x92$I\x92$I\xd2?'
p3534
tp3535
Rp3536
ag246
(g249
S'\x00\x00\x00\x00\x00\x00\x00\x00'
p3537
tp3538
Rp3539
ag246
(g249
S'\x17]t\xd1E\x17\xdd?'
p3540
tp3541
Rp3542
ag246
(g249
S'\x00\x00\x00\x00\x00\x00\x00\x00'
p3543
tp3544
Rp3545
ag246
(g249
S'\x00\x00\x00\x00\x00\x00\x00\x00'
p3546
tp3547
Rp3548
ag246
(g249
S'\x00\x00\x00\x00\x00\x00\x00\x00'
p3549
tp3550
Rp3551
ag246
(g249
S'\x00\x00\x00\x00\x00\x00\x00\x00'
p3552
tp3553
Rp3554
ag246
(g249
S'\x00\x00\x00\x00\x00\x00\x00\x00'
p3555
tp3556
Rp3557
ag246
(g249
S'\x00\x00\x00\x00\x00\x00\x00\x00'
p3558
tp3559
Rp3560
ag246
(g249
S'\x9a\x99\x99\x99\x99\x99\xc9?'
p3561
tp3562
Rp3563
ag246
(g249
S'\x00\x00\x00\x00\x00\x00\xe7?'
p3564
tp3565
Rp3566
ag246
(g249
S'!6\x95\x86\x9c\xfb\xe0?'
p3567
tp3568
Rp3569
ag246
(g249
S'\x00\x00\x00\x00\x00\x00\xf0?'
p3570
tp3571
Rp3572
ag246
(g249
S'gfffff\xe6?'
p3573
tp3574
Rp3575
ag246
(g249
S'\x00\x00\x00\x00\x00\x00\xd8?'
p3576
tp3577
Rp3578
ag246
(g249
S'333333\xd3?'
p3579
tp3580
Rp3581
ag246
(g249
S'\x00\x00\x00\x00\x00\x00\x00\x00'
p3582
tp3583
Rp3584
ag246
(g249
S'\x00\x00\x00\x00\x00\x00\x00\x00'
p3585
tp3586
Rp3587
ag246
(g249
S'\x00\x00\x00\x00\x00\x00\xd0?'
p3588
tp3589
Rp3590
ag246
(g249
S'333333\xd3?'
p3591
tp3592
Rp3593
ag246
(g249
S'\x00\x00\x00\x00\x00\x00\x00\x00'
p3594
tp3595
Rp3596
ag246
(g249
S'\x00\x00\x00\x00\x00\x00\xe8?'
p3597
tp3598
Rp3599
ag246
(g249
S'\x00\x00\x00\x00\x00\x00\x00\x00'
p3600
tp3601
Rp3602
ag246
(g249
S'\x9a\x99\x99\x99\x99\x99\xd9?'
p3603
tp3604
Rp3605
ag246
(g249
S'uP\x07uP\x07\xe5?'
p3606
tp3607
Rp3608
ag246
(g249
S'\x00\x00\x00\x00\x00\x00\xe4?'
p3609
tp3610
Rp3611
ag246
(g249
S'\xd9d\x93M6\xd9\xe4?'
p3612
tp3613
Rp3614
ag246
(g249
S'\x11\x11\x11\x11\x11\x11\xb1?'
p3615
tp3616
Rp3617
ag246
(g249
S'433333\xc3?'
p3618
tp3619
Rp3620
ag246
(g249
S'0\x8d\x01\xd3\x180\xd5?'
p3621
tp3622
Rp3623
ag246
(g249
S'\x00\x00\x00\x00\x00\x00\x00\x00'
p3624
tp3625
Rp3626
ag246
(g249
S'\x00\x00\x00\x00\x00\x00\x00\x00'
p3627
tp3628
Rp3629
ag246
(g249
S'\x9a\x99\x99\x99\x99\x99\xd9?'
p3630
tp3631
Rp3632
ag246
(g249
S'\x00\x00\x00\x00\x00\x00\x00\x00'
p3633
tp3634
Rp3635
ag246
(g249
S'ffffff\xde?'
p3636
tp3637
Rp3638
ag246
(g249
S'}\xc5W|\xc5W\xbc?'
p3639
tp3640
Rp3641
ag246
(g249
S'ffffff\xde?'
p3642
tp3643
Rp3644
ag246
(g249
S'ffffff\xc6?'
p3645
tp3646
Rp3647
ag246
(g249
S'\xfd\xd8\x8f\xfd\xd8\x8f\xdd?'
p3648
tp3649
Rp3650
ag246
(g249
S'\x00\x00\x00\x00\x00\x00\x00\x00'
p3651
tp3652
Rp3653
ag246
(g249
S'\xde\xdd\xdd\xdd\xdd\xdd\xe1?'
p3654
tp3655
Rp3656
ag246
(g249
S'\xcc\xcc\xcc\xcc\xcc\xcc\xdf?'
p3657
tp3658
Rp3659
ag246
(g249
S'\x00\x00\x00\x00\x00\x00\xf0?'
p3660
tp3661
Rp3662
ag246
(g249
S'ffffff\xe0?'
p3663
tp3664
Rp3665
ag246
(g249
S'\xdd\xdd\xdd\xdd\xdd\xdd\xdd?'
p3666
tp3667
Rp3668
ag246
(g249
S'\xfb\xa4O\xfa\xa4O\xda?'
p3669
tp3670
Rp3671
ag246
(g249
S'\x00\x00\x00\x00\x00\x00\xdc?'
p3672
tp3673
Rp3674
ag246
(g249
S'\xab\xaa\xaa\xaa\xaa\xaa\xe2?'
p3675
tp3676
Rp3677
ag246
(g249
S'\x9a\x99\x99\x99\x99\x99\xe9?'
p3678
tp3679
Rp3680
ag246
(g249
S'\xf6(\\\x8f\xc2\xf5\xe0?'
p3681
tp3682
Rp3683
ag246
(g249
S'\x00\x00\x00\x00\x00\x00\xb0?'
p3684
tp3685
Rp3686
ag246
(g249
S'\x00\x00\x00\x00\x00\x00\xf0?'
p3687
tp3688
Rp3689
ag246
(g249
S'\x00\x00\x00\x00\x00\x00\x00\x00'
p3690
tp3691
Rp3692
ag246
(g249
S'\x00\x00\x00\x00\x00\x00\x00\x00'
p3693
tp3694
Rp3695
ag246
(g249
S'\x00\x00\x00\x00\x00\x00\x00\x00'
p3696
tp3697
Rp3698
ag246
(g249
S'\x9a\x99\x99\x99\x99\x99\xd5?'
p3699
tp3700
Rp3701
ag246
(g249
S'\xef\xee\xee\xee\xee\xee\xde?'
p3702
tp3703
Rp3704
ag246
(g249
S'\x9a\x99\x99\x99\x99\x99\xe1?'
p3705
tp3706
Rp3707
ag246
(g249
S'\xb0\x05[\xb0\x05[\xe0?'
p3708
tp3709
Rp3710
ag246
(g249
S'""""""\xd2?'
p3711
tp3712
Rp3713
ag246
(g249
S'\x00\x00\x00\x00\x00\x00\x00\x00'
p3714
tp3715
Rp3716
ag246
(g249
S'\x00\x00\x00\x00\x00\x00\xe0?'
p3717
tp3718
Rp3719
ag246
(g249
S'\x9a\x99\x99\x99\x99\x99\xc9?'
p3720
tp3721
Rp3722
ag246
(g249
S'ffffff\xee?'
p3723
tp3724
Rp3725
ag246
(g249
S'\x9a\x99\x99\x99\x99\x99\xe1?'
p3726
tp3727
Rp3728
ag246
(g249
S'\x00\x00\x00\x00\x00\x00\x00\x00'
p3729
tp3730
Rp3731
ag246
(g249
S'\x00\x00\x00\x00\x00\x00\x00\x00'
p3732
tp3733
Rp3734
ag246
(g249
S'\x00\x00\x00\x00\x00\x00\xd0?'
p3735
tp3736
Rp3737
ag246
(g249
S'\x00\x00\x00\x00\x00\x00\xe0?'
p3738
tp3739
Rp3740
ag246
(g249
S'\x8d\x06B\x85\xe7\xc5\xd8?'
p3741
tp3742
Rp3743
ag246
(g249
S'\x00\x00\x00\x00\x00\x00\x00\x00'
p3744
tp3745
Rp3746
ag246
(g249
S'\x00\x00\x00\x00\x00\x00\xf0?'
p3747
tp3748
Rp3749
ag246
(g249
S'333333\xe3?'
p3750
tp3751
Rp3752
ag246
(g249
S'UUUUUU\xd5?'
p3753
tp3754
Rp3755
ag246
(g249
S'\xd4\xfa\x95\x02\xb5~\xe3?'
p3756
tp3757
Rp3758
ag246
(g249
S'\x00\x00\x00\x00\x00\x00\x00\x00'
p3759
tp3760
Rp3761
ag246
(g249
S'\xab\xaa\xaa\xaa\xaa\xaa\xda?'
p3762
tp3763
Rp3764
ag246
(g249
S'\x00\x00\x00\x00\x00\x00\xe0?'
p3765
tp3766
Rp3767
ag246
(g249
S'{\x14\xaeG\xe1z\xe0?'
p3768
tp3769
Rp3770
ag246
(g249
S'ffffff\xe6?'
p3771
tp3772
Rp3773
ag246
(g249
S'\x00\x00\x00\x00\x00\x00\x00\x00'
p3774
tp3775
Rp3776
ag246
(g249
S'\x9a\x99\x99\x99\x99\x99\xe1?'
p3777
tp3778
Rp3779
ag246
(g249
S'333333\xe3?'
p3780
tp3781
Rp3782
ag246
(g249
S'\xf5<\xcf\xf3<\xcf\xd3?'
p3783
tp3784
Rp3785
ag246
(g249
S'\x00\x00\x00\x00\x00\x00\x00\x00'
p3786
tp3787
Rp3788
atp3789
ba(lp3790
g9
(g10
(dp3791
g12
g13
(g14
(I0
tp3792
g16
tp3793
Rp3794
(I1
(I13
tp3795
g23
I00
(lp3796
g27
ag28
ag29
ag30
ag31
ag32
ag33
ag34
ag35
ag36
ag37
ag38
ag39
atp3797
bsg41
Nstp3798
Rp3799
a(dp3800
S'0.14.1'
p3801
(dp3802
S'axes'
p3803
g8
sS'blocks'
p3804
(lp3805
(dp3806
S'mgr_locs'
p3807
c__builtin__
slice
p3808
(I0
I13
I1
tp3809
Rp3810
sS'values'
p3811
g62
sasstp3812
bb.