(lp0
S'nonsense'
p1
aS'join'
p2
aS'ISIS'
p3
aS'shit'
p4
aS'shower'
p5
aS'join'
p6
aS'actual'
p7
aS'consequent'
p8
aS'dead'
p9
aS'leave'
p10
aS'single'
p11
aS'endless'
p12
aS'defeating'
p13
aS'countless'
p14
aS'random'
p15
aS'swollen'
p16
aS'actual'
p17
aS'yeah'
p18
aS'thin'
p19
aS'genocidal'
p20
aS'dead'
p21
aS'bad'
p22
aS'Dear'
p23
aS'Sure'
p24
aS'botched'
p25
aS'more'
p26
aS'ISIS'
p27
aS'like'
p28
aS'sure'
p29
aS'Fifteenth'
p30
aS'anywhere'
p31
aS'soooo'
p32
aS'soooo'
p33
aS'shit'
p34
aS'ISIS'
p35
aS'bad'
p36
aS'regular'
p37
aS'foreign'
p38
aS'shoot'
p39
aS'ISIS'
p40
aS'dead'
p41
aS'Dear'
p42
aS'old'
p43
aS'ISIS'
p44
aS'ISIS'
p45
aS'Dear'
p46
aS'Dear'
p47
aS'Dear'
p48
aS'shit'
p49
aS'actual'
p50
aS'Suck-it'
p51
aS'versus'
p52
aS'ISIS'
p53
aS'many'
p54
aS'ISIS'
p55
aS'Dear'
p56
aS'shit'
p57
aS'trained'
p58
aS'ISIS'
p59
aS'ISIS'
p60
aS'rich'
p61
aS'equal'
p62
aS'terrible'
p63
aS'mean'
p64
aS'claimed'
p65
aS'local'
p66
aS'responsible'
p67
aS'rich'
p68
aS'insidious'
p69
aS'dead'
p70
aS'shit'
p71
aS'shit'
p72
aS'least'
p73
aS'confiscated'
p74
aS'v=Iu_30-8ZlmQ'
p75
aS'pretty'
p76
aS'afraid'
p77
aS'shit'
p78
aS'shit'
p79
aS'al-Qaeda'
p80
aS'disingenous'
p81
aS'reasonable'
p82
aS'next'
p83
aS'current'
p84
aS'join'
p85
aS'careful'
p86
aS'good'
p87
aS'misunderstood'
p88
aS'endorse'
p89
aS'atheist'
p90
aS'funding'
p91
aS'loud'
p92
aS'glad'
p93
aS'useful'
p94
aS'systematicly'
p95
aS'~~we~~'
p96
aS'obvious'
p97
aS'Syrian_Civil_War_detailed_map'
p98
aS'join'
p99
aS'hating'
p100
aS'unislamic'
p101
aS'many'
p102
aS'dreaded'
p103
aS'hate'
p104
aS'bro'
p105
aS'ISIS'
p106
aS'horrible'
p107
aS'autonomous'
p108
aS'fight'
p109
aS'Western'
p110
aS'top'
p111
aS'rival'
p112
aS'wrong'
p113
aS'ISIS'
p114
aS'worship'
p115
aS'muslim'
p116
aS'like'
p117
aS'legitimate'
p118
aS'official'
p119
aS'alongside'
p120
aS'many'
p121
aS'fighting'
p122
aS'irrelevant'
p123
aS'ISIS'
p124
aS'crazy'
p125
aS'fighting'
p126
aS'ISIS'
p127
aS'least'
p128
aS'honest'
p129
aS'bombs'
p130
aS'shit'
p131
aS'use'
p132
aS'rampant'
p133
aS'next'
p134
aS'aah'
p135
aS'sure'
p136
aS'fighting'
p137
aS'upvoting'
p138
aS'anti'
p139
aS'disciplined'
p140
aS'subordinate'
p141
aS'ISIS'
p142
aS'ISIS'
p143
aS'detest'
p144
aS'top'
p145
aS'great'
p146
aS'dirty'
p147
aS'former'
p148
aS'top'
p149
aS'senior'
p150
aS'fight'
p151
aS'fucking'
p152
aS'high-value'
p153
aS'next'
p154
aS'covert'
p155
aS'former'
p156
aS'incapable'
p157
aS'support'
p158
aS'endless'
p159
aS'other'
p160
aS'perverse'
p161
aS'ISIS'
p162
aS'second'
p163
aS'else'
p164
aS'ISIS'
p165
aS'ISIS'
p166
aS'ISIS'
p167
aS'sure'
p168
aS'sweeping'
p169
aS'someday'
p170
aS'secret'
p171
aS'somehow'
p172
aS'right'
p173
aS'whole'
p174
aS'whereas'
p175
aS'good'
p176
aS'serious'
p177
aS'jew'
p178
aS'worse'
p179
aS'most'
p180
aS'ISIS'
p181
aS'wrong'
p182
aS'fighting'
p183
aS'muslim'
p184
aS'weak'
p185
aS'much'
p186
aS'sure'
p187
aS'other'
p188
aS'therefor'
p189
aS'sure'
p190
aS'despicable'
p191
aS'ISIS'
p192
aS'anti'
p193
aS'dangerous'
p194
aS'assume'
p195
aS'shit'
p196
aS'affirm'
p197
aS'ISIS'
p198
aS'real'
p199
aS'worse'
p200
aS'ISIS'
p201
aS'ISIS'
p202
aS'defeat'
p203
aS'Yea'
p204
aS'dealt'
p205
aS'ISIS'
p206
aS'ISIS'
p207
aS'lucky'
p208
aS'*given*'
p209
aS'good'
p210
aS'support'
p211
aS'broad'
p212
aS'former'
p213
aS'least'
p214
aS'bad'
p215
aS'ISIS'
p216
aS'able'
p217
aS'Top'
p218
aS'high-ranking'
p219
aS'senior'
p220
aS'many'
p221
aS'senior'
p222
aS'bad'
p223
aS'senior'
p224
aS'unaware'
p225
aS'least'
p226
aS'quaeda/'
p227
aS'next'
p228
aS'important'
p229
aS'fuck'
p230
aS'stupid'
p231
aS'ISIS'
p232
aS'many'
p233
aS'many'
p234
aS'bombed'
p235
aS'more'
p236
aS'Jewish'
p237
aS'scary'
p238
aS'would-be'
p239
aS'current'
p240
aS'mirror'
p241
aS"'OMG"
p242
aS'other'
p243
aS'like'
p244
aS'ISIS'
p245
aS'less'
p246
aS'big'
p247
aS'terrible'
p248
aS'rob'
p249
aS'able'
p250
aS'less'
p251
aS'multiple'
p252
aS'fighting'
p253
aS'nuclear'
p254
aS'average'
p255
aS'good'
p256
aS'fighting'
p257
aS'think'
p258
aS'real'
p259
aS'worthless'
p260
aS'denounce'
p261
aS'due'
p262
aS'whole'
p263
aS'good'
p264
aS'stuff'
p265
aS'key'
p266
aS'many'
p267
aS'like'
p268
aS'only'
p269
aS'*fucking*'
p270
aS'big'
p271
aS'stronger'
p272
aS'upper'
p273
aS'western'
p274
aS'western'
p275
aS'bad'
p276
aS'whole'
p277
aS'former'
p278
aS'european'
p279
aS'Upcomer'
p280
aS'join'
p281
aS'ISIS'
p282
aS'ISIS'
p283
aS'fuck'
p284
aS'joining'
p285
aS'sick'
p286
aS'funding'
p287
aS'strong'
p288
aS'strong'
p289
aS'army'
p290
aS'troops-'
p291
aS'dismantle'
p292
aS'join'
p293
aS'unable'
p294
aS'able'
p295
aS'fight'
p296
aS'Western'
p297
aS'joined'
p298
aS'top'
p299
aS'fight'
p300
aS'whole'
p301
aS'current'
p302
aS'whole'
p303
aS'ISIS'
p304
aS'likely'
p305
aS'friendly'
p306
aS'likely'
p307
aS'videos'
p308
aS'near'
p309
aS'injured'
p310
aS'right'
p311
aS'whole'
p312
aS'main'
p313
aS'massive'
p314
aS'more'
p315
aS'jewish'
p316
aS'ok.'
p317
aS'Jewish'
p318
aS'populated'
p319
aS'fine'
p320
aS'close'
p321
aS'weakened'
p322
aS'fake'
p323
aS'major'
p324
aS'bat'
p325
aS'mind'
p326
aS'large'
p327
aS'better'
p328
aS'think'
p329
aS'wrong'
p330
aS'join'
p331
aS'joining'
p332
aS'crush'
p333
aS'many'
p334
aS'US-backed'
p335
aS'ISIS'
p336
aS'capable'
p337
aS'more'
p338
aS'ask'
p339
aS'sunni'
p340
aS'nuke'
p341
aS'hate'
p342
aS'likely'
p343
aS'unacceptable'
p344
aS'fund'
p345
aS'terrible'
p346
aS'catchier'
p347
aS'screwed'
p348
aS'loyal'
p349
aS'fight'
p350
aS'understanding'
p351
aS'funding'
p352
aS'pretty'
p353
aS'whole'
p354
aS'Clearly'
p355
aS'funding'
p356
aS'touch'
p357
aS'offensive'
p358
aS'fantastic'
p359
aS'ISIS'
p360
aS'glad'
p361
aS'like'
p362
aS'next'
p363
aS'cept'
p364
aS'understand'
p365
aS'experience'
p366
aS'eastern'
p367
aS'join'
p368
aS'German'
p369
aS'German'
p370
aS'weaker'
p371
aS'funding'
p372
aS'happy'
p373
aS'side'
p374
aS'stop'
p375
aS'big'
p376
aS'sub-human'
p377
aS'responsible'
p378
aS'terrible'
p379
aS'sub-human'
p380
aS'poor'
p381
aS'unbiased'
p382
aS'related'
p383
aS'non'
p384
aS'opportunistic'
p385
aS'less'
p386
aS'depraved'
p387
aS'aka'
p388
aS'*with*'
p389
aS'whereas'
p390
aS'ISIS'
p391
aS'independent'
p392
aS'*every*'
p393
aS'potential'
p394
aS'evil'
p395
aS'join'
p396
aS'fight'
p397
aS'first'
p398
aS'retarded'
p399
aS'like'
p400
aS'evil'
p401
aS'more'
p402
aS'fight'
p403
aS'Classic'
p404
aS'bad'
p405
aS'join'
p406
aS'foreign'
p407
aS'average'
p408
aS'fight'
p409
aS'evil'
p410
aS'worse'
p411
aS'obvious'
p412
aS'fight'
p413
aS'horrible'
p414
aS'destroy'
p415
aS'defeat'
p416
aS'little'
p417
aS'shit'
p418
aS'pretty'
p419
aS'insane'
p420
aS'evil'
p421
aS'crazy'
p422
aS'fuck'
p423
aS'early'
p424
aS'like'
p425
aS'evil'
p426
aS'destroy'
p427
aS'dead'
p428
aS'good'
p429
aS'funding'
p430
aS'much'
p431
aS'shit'
p432
aS'gullible'
p433
aS'illegal'
p434
aS'ridiculous'
p435
aS'slaughter'
p436
aS'funding'
p437
aS'convinced'
p438
aS'vile'
p439
aS'stop'
p440
aS'functional'
p441
aS'impossible'
p442
aS'powerful'
p443
aS'allow'
p444
aS'videos'
p445
aS'fight'
p446
aS'fight'
p447
aS'fight'
p448
aS'motivating'
p449
aS'evil'
p450
aS'fight'
p451
aS'evil'
p452
aS'arm'
p453
aS'wounded'
p454
aS'jihadis'
p455
aS'cuz'
p456
aS'ISIS'
p457
aS'show'
p458
aS'wipe'
p459
aS'follow'
p460
aS'vast'
p461
aS'roam'
p462
aS'fighting'
p463
aS'ISIS'
p464
aS'vast'
p465
aS'**7,000**'
p466
aS'aware'
p467
aS'bad'
p468
aS'good'
p469
aS'single'
p470
aS'wrt'
p471
aS'large'
p472
aS'follow'
p473
aS'whole'
p474
aS'finish'
p475
aS'enter'
p476
aS'like'
p477
aS'pro'
p478
aS'threatening'
p479
aS'able'
p480
aS'hell-bent'
p481
aS'dead'
p482
aS'major'
p483
aS'stronger'
p484
aS'join'
p485
aS'despicable'
p486
aS'fun'
p487
aS'many'
p488
aS'capable'
p489
aS'bad'
p490
aS'mean'
p491
aS'poor'
p492
aS'single'
p493
aS'aware'
p494
aS'texas'
p495
aS'smart'
p496
aS'underestimate'
p497
aS'shit'
p498
aS'whole'
p499
aS'ISIS'
p500
aS'understanding'
p501
aS'mean'
p502
aS'many'
p503
aS'many'
p504
aS'full'
p505
aS'ISIS'
p506
aS'fighting'
p507
aS'other'
p508
aS'more'
p509
aS'fighting'
p510
aS'whole'
p511
aS'ISIS'
p512
aS'ISIS'
p513
aS'anti'
p514
aS'many'
p515
aS'many'
p516
aS'fighting'
p517
aS'more'
p518
aS'funding'
p519
aS'imagine'
p520
aS'non'
p521
aS'full'
p522
aS'comparable'
p523
aS'bad'
p524
aS'stupid'
p525
aS'sure'
p526
aS'western'
p527
aS'*in*'
p528
aS'support'
p529
aS'happy'
p530
aS'funding'
p531
aS'stupid'
p532
aS'fight'
p533
aS'fifty'
p534
aS'like'
p535
aS'worn'
p536
aS'fighting'
p537
aS'ISIS'
p538
aS'ISIS'
p539
aS'fighting'
p540
aS'fighting'
p541
aS'current'
p542
aS'fvcking'
p543
aS'equivalent'
p544
aS'misdirect'
p545
aS'current'
p546
aS'likely'
p547
aS'likely'
p548
aS'ISIS'
p549
aS'destroying'
p550
aS'like'
p551
aS'iraq-syria'
p552
aS'arm'
p553
aS'extremist'
p554
aS'join'
p555
aS'and/or'
p556
aS'ISIS'
p557
aS'ISIS'
p558
aS'successful'
p559
aS'funding'
p560
aS'perspective'
p561
aS'funding'
p562
aS'such'
p563
aS'fight'
p564
aS'happy'
p565
aS'arming'
p566
aS'happy'
p567
aS'//www.jpost.com/Middle-East/Report-Israel-treating-al-Qaida-fighters-wounded-in-Syria-civil-war-393862'
p568
aS'mean'
p569
aS'bad'
p570
aS'sure'
p571
aS'Seuss-like'
p572
aS'wannabe'
p573
aS'last'
p574
aS'right'
p575
aS'Iraqi-Canadian'
p576
aS'integrate'
p577
aS'new'
p578
aS'beneath'
p579
aS'whole'
p580
aS"''wannabe"
p581
aS'iraq'
p582
aS'sure'
p583
aS'ISIS'
p584
aS'sure'
p585
aS'bombing'
p586
aS'actual'
p587
aS'bored'
p588
aS'evil'
p589
aS'fighting'
p590
aS'bad'
p591
aS'logic'
p592
aS'yeah'
p593
aS'actual'
p594
aS'fight'
p595
aS'describes'
p596
aS'ISIS'
p597
aS'logic'
p598
aS'ISIS'
p599
aS'more'
p600
aS'different'
p601
aS'whole'
p602
aS'Most'
p603
aS'annihilate'
p604
aS'Stupid'
p605
aS'worse'
p606
aS'more'
p607
aS'ISIS'
p608
aS'able'
p609
a.