ccopy_reg
_reconstructor
p0
(cpandas.core.frame
DataFrame
p1
c__builtin__
object
p2
Ntp3
Rp4
g0
(cpandas.core.internals
BlockManager
p5
g2
Ntp6
Rp7
((lp8
cpandas.core.index
_new_Index
p9
(cpandas.core.index
Index
p10
(dp11
S'data'
p12
cnumpy.core.multiarray
_reconstruct
p13
(cnumpy
ndarray
p14
(I0
tp15
S'b'
p16
tp17
Rp18
(I1
(I13
tp19
cnumpy
dtype
p20
(S'O8'
p21
I0
I1
tp22
Rp23
(I3
S'|'
p24
NNNI-1
I-1
I63
tp25
bI00
(lp26
S'body'
p27
aS'score'
p28
aS'overallPol'
p29
aS'stdPol'
p30
aS'overallSub'
p31
aS'stdSub'
p32
aS'polRange'
p33
aS'subRange'
p34
aS'wordCount'
p35
aS'bigWords'
p36
aS'sentLen'
p37
aS'targetPol'
p38
aS'targetSub'
p39
atp40
bsS'name'
p41
Nstp42
Rp43
ag9
(cpandas.core.index
Int64Index
p44
(dp45
g12
g13
(g14
(I0
tp46
g16
tp47
Rp48
(I1
(I124
tp49
g20
(S'i8'
p50
I0
I1
tp51
Rp52
(I3
S'<'
p53
NNNI-1
I-1
I0
tp54
bI00
S'\x00\x00\x00\x00\x00\x00\x00\x00\x01\x00\x00\x00\x00\x00\x00\x00\x02\x00\x00\x00\x00\x00\x00\x00\x03\x00\x00\x00\x00\x00\x00\x00\x04\x00\x00\x00\x00\x00\x00\x00\x05\x00\x00\x00\x00\x00\x00\x00\x06\x00\x00\x00\x00\x00\x00\x00\x07\x00\x00\x00\x00\x00\x00\x00\x08\x00\x00\x00\x00\x00\x00\x00\t\x00\x00\x00\x00\x00\x00\x00\n\x00\x00\x00\x00\x00\x00\x00\x0b\x00\x00\x00\x00\x00\x00\x00\x0c\x00\x00\x00\x00\x00\x00\x00\r\x00\x00\x00\x00\x00\x00\x00\x0e\x00\x00\x00\x00\x00\x00\x00\x0f\x00\x00\x00\x00\x00\x00\x00\x10\x00\x00\x00\x00\x00\x00\x00\x11\x00\x00\x00\x00\x00\x00\x00\x12\x00\x00\x00\x00\x00\x00\x00\x13\x00\x00\x00\x00\x00\x00\x00\x14\x00\x00\x00\x00\x00\x00\x00\x15\x00\x00\x00\x00\x00\x00\x00\x16\x00\x00\x00\x00\x00\x00\x00\x17\x00\x00\x00\x00\x00\x00\x00\x18\x00\x00\x00\x00\x00\x00\x00\x19\x00\x00\x00\x00\x00\x00\x00\x1a\x00\x00\x00\x00\x00\x00\x00\x1b\x00\x00\x00\x00\x00\x00\x00\x1c\x00\x00\x00\x00\x00\x00\x00\x1d\x00\x00\x00\x00\x00\x00\x00\x1e\x00\x00\x00\x00\x00\x00\x00\x1f\x00\x00\x00\x00\x00\x00\x00 \x00\x00\x00\x00\x00\x00\x00!\x00\x00\x00\x00\x00\x00\x00"\x00\x00\x00\x00\x00\x00\x00#\x00\x00\x00\x00\x00\x00\x00$\x00\x00\x00\x00\x00\x00\x00%\x00\x00\x00\x00\x00\x00\x00&\x00\x00\x00\x00\x00\x00\x00\'\x00\x00\x00\x00\x00\x00\x00(\x00\x00\x00\x00\x00\x00\x00)\x00\x00\x00\x00\x00\x00\x00*\x00\x00\x00\x00\x00\x00\x00+\x00\x00\x00\x00\x00\x00\x00,\x00\x00\x00\x00\x00\x00\x00-\x00\x00\x00\x00\x00\x00\x00.\x00\x00\x00\x00\x00\x00\x00/\x00\x00\x00\x00\x00\x00\x000\x00\x00\x00\x00\x00\x00\x001\x00\x00\x00\x00\x00\x00\x002\x00\x00\x00\x00\x00\x00\x003\x00\x00\x00\x00\x00\x00\x004\x00\x00\x00\x00\x00\x00\x005\x00\x00\x00\x00\x00\x00\x006\x00\x00\x00\x00\x00\x00\x007\x00\x00\x00\x00\x00\x00\x008\x00\x00\x00\x00\x00\x00\x009\x00\x00\x00\x00\x00\x00\x00:\x00\x00\x00\x00\x00\x00\x00;\x00\x00\x00\x00\x00\x00\x00<\x00\x00\x00\x00\x00\x00\x00=\x00\x00\x00\x00\x00\x00\x00>\x00\x00\x00\x00\x00\x00\x00?\x00\x00\x00\x00\x00\x00\x00@\x00\x00\x00\x00\x00\x00\x00A\x00\x00\x00\x00\x00\x00\x00B\x00\x00\x00\x00\x00\x00\x00C\x00\x00\x00\x00\x00\x00\x00D\x00\x00\x00\x00\x00\x00\x00E\x00\x00\x00\x00\x00\x00\x00F\x00\x00\x00\x00\x00\x00\x00G\x00\x00\x00\x00\x00\x00\x00H\x00\x00\x00\x00\x00\x00\x00I\x00\x00\x00\x00\x00\x00\x00J\x00\x00\x00\x00\x00\x00\x00K\x00\x00\x00\x00\x00\x00\x00L\x00\x00\x00\x00\x00\x00\x00M\x00\x00\x00\x00\x00\x00\x00N\x00\x00\x00\x00\x00\x00\x00O\x00\x00\x00\x00\x00\x00\x00P\x00\x00\x00\x00\x00\x00\x00Q\x00\x00\x00\x00\x00\x00\x00R\x00\x00\x00\x00\x00\x00\x00S\x00\x00\x00\x00\x00\x00\x00T\x00\x00\x00\x00\x00\x00\x00U\x00\x00\x00\x00\x00\x00\x00V\x00\x00\x00\x00\x00\x00\x00W\x00\x00\x00\x00\x00\x00\x00X\x00\x00\x00\x00\x00\x00\x00Y\x00\x00\x00\x00\x00\x00\x00Z\x00\x00\x00\x00\x00\x00\x00[\x00\x00\x00\x00\x00\x00\x00\\\x00\x00\x00\x00\x00\x00\x00]\x00\x00\x00\x00\x00\x00\x00^\x00\x00\x00\x00\x00\x00\x00_\x00\x00\x00\x00\x00\x00\x00`\x00\x00\x00\x00\x00\x00\x00a\x00\x00\x00\x00\x00\x00\x00b\x00\x00\x00\x00\x00\x00\x00c\x00\x00\x00\x00\x00\x00\x00d\x00\x00\x00\x00\x00\x00\x00e\x00\x00\x00\x00\x00\x00\x00f\x00\x00\x00\x00\x00\x00\x00g\x00\x00\x00\x00\x00\x00\x00h\x00\x00\x00\x00\x00\x00\x00i\x00\x00\x00\x00\x00\x00\x00j\x00\x00\x00\x00\x00\x00\x00k\x00\x00\x00\x00\x00\x00\x00l\x00\x00\x00\x00\x00\x00\x00m\x00\x00\x00\x00\x00\x00\x00n\x00\x00\x00\x00\x00\x00\x00o\x00\x00\x00\x00\x00\x00\x00p\x00\x00\x00\x00\x00\x00\x00q\x00\x00\x00\x00\x00\x00\x00r\x00\x00\x00\x00\x00\x00\x00s\x00\x00\x00\x00\x00\x00\x00t\x00\x00\x00\x00\x00\x00\x00u\x00\x00\x00\x00\x00\x00\x00v\x00\x00\x00\x00\x00\x00\x00w\x00\x00\x00\x00\x00\x00\x00x\x00\x00\x00\x00\x00\x00\x00y\x00\x00\x00\x00\x00\x00\x00z\x00\x00\x00\x00\x00\x00\x00{\x00\x00\x00\x00\x00\x00\x00'
p55
tp56
bsg41
Nstp57
Rp58
a(lp59
g13
(g14
(I0
tp60
g16
tp61
Rp62
(I1
(I13
I124
tp63
g23
I00
(lp64
S"I'm extremely surprised by what is in this announcement. \n\nThe battery is incredibly cheap: $3500 for 10 kWh, $3000 for 7 kWh. This is a price of $350/kWh and $429/kWh respectively. This is incredibly cheap compared to Tesla's competitors. Aquion, for example, sells [this 2.4 kWh battery for $1,155 or $481/kWh](http://www.altestore.com/store/Deep-Cycle-Batteries/Batteries-Saltwater-Technology/Aquion-Energy-S20P-Pre-wired-Battery-Stack-48V/p11629/?gclid=CjwKEAjw9uypBRD5pMDYtsKxvXcSJACcb9AY4u2A6eKp7PCGqEQGOOsWqXII6EAp_3JzAeejuQ3G2RoC_Gzw_wcB) and [this 28.4 kWh battery for $15,795 or $556/kWh](https://www.altestore.com/store/Deep-Cycle-Batteries/Batteries-Saltwater-Technology/Aquion-Energy-M100-L082P-Pre-wired-Battery-Module-48V/p11640/_). \n\nAlso, Tesla has a long list of partners and endorsements including TreeHouse, SolarEdge, Green Mountain Power, Amazon, Target, Jackson Family Wines, EnerNoc, Advanced Microgrid Solutions, OnCor, Southern California Edison, and AES. This long list means that Tesla really has intrigued many industries with this stationary storage product."
p65
aS"What exactly is Tesla 'introducing' here? It's lithium ion battery in a box, which is what a Boeing 787 and the phone that I'm typing this on already have."
p66
aS'Tesla is really going to be the Google of electromechanical engineering'
p67
aS"I'm just saying Tesla isn't making them disapear when you return them"
p68
aS"I know some electric cars keep a fairly large margin from fully charged and discharged to preserve battery useful life.  The Volt is like 30% to 70% or so.  I read it has a 16kWh battery and you get around 10kWh of use out of it (enough for ~40 miles).  I would suspect Tesla is doing the same to a degree, letting lithium batteries deep discharge shortens their life.  I didn't realize that fully charging them did the same, guess phones and tablets could learn a lesson from that so I wouldn't need a new battery every year."
p69
aS'So basically Tesla is going to sell cheap uninterpretable power supplies.'
p70
aS"Tesla claims 10 years.  That's not too bad in the long run, and battery performance and density should markedly improve by the time you need replacing."
p71
aS"The breakthrough is not the technology. The technology has been available for quite some time, it's just fairly expensive compared to alternatives like large lead acid battery banks.\n\nThe breakthrough is that Elon and Tesla are putting their might behind the project. Wrapping it up into a neat 'all in one' appliance with modern (but expensive) batteries does help."
p72
aS"&gt; The breakthrough is that Elon and Tesla are putting their might behind the project\n\nOh come on, there's no need to substitute PR drivel for real, concrete reasons.\n\n* Better battery tech\n\n* Economics of scale due to battery production for Tesla (i.e. the gigafactory)\n\n* Savings due to the ability to reuse Tesla batteries that are no longer suitable for cars\n\n* Solar is getting close enough to being economical that the expected value of storage capacity is increasing"
p73
aS"Tesla has not said they will reuse Tesla batteries. And given Tesla is currently resells used Teslas, I don't know where this source of used batteries will come from anyway."
p74
aS"No.  Ten years.  [That's how long Tesla guarantees a PowerWall for.](http://www.teslamotors.com/powerwall)  And if they're using Lithium-Ion batteries they will degrade over time."
p75
aS"&gt; Is it the price, the size, the installation cost and/or the shiny casing?\n\nHow about a combination of these factors, as well as the ease of understanding?  This is a turnkey system, and it looks simple enough that people who were wary of putting in hours of research into the subject to be sure they were choosing the right system(s) can now see it hanging on their wall, quietly doing its job, while being backed by a huge company with a great reputation, and (I can nearly guarantee) a large and active community of fellow owners.\n\nLook at Apple's successes in making existing product categories household necessities in the past 15 years.  The iPod, iPhone, and iPad were all just their shiny, easy-to-use, well made versions of existing products that had been out for years, but weren't selling in huge numbers.  Tesla is wise to apply that business model to their endeavors."
p76
aS'1. Easy storage of home solar or home wind power for later use.\n2. Ease the load on the grid during peak hours.\n3. Prevent short term blackouts (less than a day), if connected to grid.\n4. Charge cheaply at night and use at day during peak hours.\n5. Prevent long term blackouts (days to weeks), if connected to home solar/wind and grid.\n6. Go permanently off grid, if you have home solar/wind power available and add more Powerwalls.\n7. Wife-acceptance-factor is at least 1.57 with sexy Tesla box on the wall instead of arrays of ugly batteries in the basement with a WAF of only 0.41.'
p77
aS'I would love to hear why someone would return their 3 year old Tesla. I see the advantage to owning one but would like to hear the downside from previous owners. '
p78
aS"The cheapest used Tesla is still 6X what I paid for my car. \nSomeday...someday I'll have one. "
p79
aS"Other automakers call it - Certified pre-owned.  They all have these programs and I've even seen BMW commercials for it on national TV. A lot of the techie crowd just eat up anything Tesla does.  I swear if they offered Teslas with fart-blossom scented interiors, these fucktarts taught how ingenious it is that their interiors hide the smell of your fart - by smelling like a fart!"
p80
aS"I love Teslas as much as the next dweeb, but I do not understand why this gets upvoted.\n\n* Tesla decided many years ago to cut out the dealer and sell directly to consumers.\n* Dealers usually deal in both new and used cars.\n* When Tesla started, there weren't any used Teslas because duh.\n* Two or three years later, used cars are starting to pop up.\n\nOf course Tesla is going to start buying and selling used cars. Anything else would be to leave money on the table.\n\nOne thing I actually *would* be interested in knowing is how large a percentage of people selling their two year old Tesla do it to buy a newer Tesla and how many have decided that Teslas aren't for them. In the latter case, I would also like to know why."
p81
aS'This is the best tl;dr I could make, [original](http://www.gizmodo.com.au/2015/05/how-the-tesla-battery-will-benefit-marijuana-growers/) reduced by 89%. (I\'m a bot)\n*****\n&gt; A medium-sized commercial weed grow with around 50 lights stands to save about $US13,500 in electricity costs a year with the use of two Tesla Batteries.\n\n&gt; &amp;quot;Where these batteries might start to make sense for small growers is when LEDs are optimised for herb,&amp;quot; says our grower.\n\n&gt; Given the current pace of marijuana legalisation, the need for clandestine home grows may largely be eliminated by the time dipping energy consumption and increasing battery capacity meet in a home solar power sweet zone, but as a massive electricity consumer, it does look like the marijuana industry is going to profit from the same Tesla Battery benefits everyone else will - reduced peak demand and increased stability during outages.\n\n\n*****\n[**Extended Summary**](http://np.reddit.com/r/autotldr/comments/34peaw/how_the_tesla_battery_will_benefit_marijuana/) | [FAQ](http://np.reddit.com/r/autotldr/comments/31b9fm/faq_autotldr_bot/ "Version 1.5, ~14622 tl;drs so far.") | [Theory](http://np.reddit.com/r/autotldr/comments/31bfht/theory_autotldr_concept/) | [Feedback](http://np.reddit.com/message/compose?to=%23autotldr "PMs and comment replies are read by the bot admin, constructive feedback is welcome.") | *Top* *five* *keywords*: **Battery**^#1 **grow**^#2 **electricity**^#3 **power**^#4 **during**^#5\n\nPost found in [/r/technology](/r/technology/comments/34pbt7/how_the_tesla_battery_will_benefit_marijuana/) and [/r/realtech](/r/realtech/comments/34pc8i/how_the_tesla_battery_will_benefit_marijuana/).'
p82
aS'On the other hand, now you do get why Tesla was banned from r/technology... because it was full of bullshit "[tomorrow Tesla is going to announce something](http://www.reddit.com/r/technology/comments/34c9r4/tesla_is_set_to_announce_a_home_battery_tomorrow/)" posts.  They can\'t even wait 24 hours between circlejerks.'
p83
aS"&gt;The bigger Tesla battery isn't designed to go through more than about 50 charging cycles a year, according to SolarCity spokesman Jonathan Bass.\n\nWow, thats incredibly disappointing."
p84
aS'This is the best tl;dr I could make, [original](http://www.bloomberg.com/news/articles/2015-05-06/tesla-s-new-battery-doesn-t-work-that-well-with-solar) reduced by 91%. (I\'m a bot)\n*****\n&gt; The new Tesla Powerwall home batteries come in two sizes-seven and 10 kilowatt hours-but the differences extend beyond capacity to the chemistry of the batteries.\n\n&gt; Customers can prepay $5,000, everything included, to add a nine-year battery lease to their system or buy the Tesla battery outright outright for $7,140.\n\n&gt; As battery costs continue to fall and electricity regulations continue to evolve in the U.S., it&amp;#039;s going to make ever more sense to own a home battery.\n\n\n*****\n[**Extended Summary**](http://np.reddit.com/r/autotldr/comments/353elm/teslas_new_battery_doesnt_work_that_well_with/) | [FAQ](http://np.reddit.com/r/autotldr/comments/31b9fm/faq_autotldr_bot/ "Version 1.5, ~15556 tl;drs so far.") | [Theory](http://np.reddit.com/r/autotldr/comments/31bfht/theory_autotldr_concept/) | [Feedback](http://np.reddit.com/message/compose?to=%23autotldr "PMs and comment replies are read by the bot admin, constructive feedback is welcome.") | *Top* *five* *keywords*: **battery**^#1 **Tesla**^#2 **new**^#3 **home**^#4 **Powerwall**^#5\n\nPost found in [/r/Economics](/r/Economics/comments/352zmg/teslas_new_battery_doesnt_work_that_well_with/), [/r/technology](/r/technology/comments/352pj9/teslas_new_battery_doesnt_work_that_well_with/), [/r/realtech](/r/realtech/comments/352pu3/teslas_new_battery_doesnt_work_that_well_with/), [/r/solar](/r/solar/comments/352xfp/teslas_new_battery_doesnt_work_that_well_with/) and [/r/energy](/r/energy/comments/352x88/teslas_new_battery_doesnt_work_that_well_with/).'
p85
aS"That would be horribly disappointing.\n\nHalf the allure of the Model S is that it's a great car that just so happens to be fully electric.\n\nI'm desperately hoping that it's an affordable Tesla for the masses, not just the small amount of people interested in SmartCar sized cars."
p86
aS"This is why I don't expect to see the Model 3 before 2018 or even 2019.  The Model X should have been even easier to develop since it is based on the Model S.  At least Tesla isn't rushing products to market that aren't ready. It is important they keep Model S levels of quality or better on all future cars."
p87
aS'It\'s like that one comic making fun of a Jewish dad.\n\n"Hey dad, can I borrow 50 dollars?"\n\n30 dollars!? What do you need to borrow 20 dollars for? (Jumps out the window).\n\n\nReserve your economy model Tesla coming next March, 2017. We\'ve got great news about the March 2018 economy model release coming 2019!'
p88
aS"How many Tesla's do you own?\n\nHow many laptops have you owned?"
p89
aS'Tesla losses last quarter:\n\n&gt;The Palo Alto electric car company said it lost $154 million in the first quarter, compared with a loss of $49.8 million a year earlier.\n\n\nTelsa welfare:\n\n\n\n\n&gt;In 2013, ZEV credits to Tesla totaled $129.8 million\n\nhttp://www.nationalreview.com/article/397162/tesla-and-its-subsidies-phil-kerpen\n\nTesla 2014 losses:\n\n&gt;For the full year, Tesla lost $294 million.\n\nhttp://www.cbc.ca/news/business/tesla-motors-ends-2014-with-a-loss-after-building-35-000-electric-cars-1.2954866\n\nElon is a corporate welfare CEO of a company that cannot remotely make a profit after 12 years in operation. If anyone here doesnt understand Tesla, its ignorant fanboys like you.'
p90
aS"You are ignoring the fact that the company has to build its entire infrastructure from the ground up.  Citing NationalReview just goes to show that you're such a far-right winger your response doesn't surprise me.  \n\nFor the full year in 2013, Tesla made $2b in revenues and spent $1.5b in cost of revenues for a gross margin of 25% for the average of the year.  [From 2013](http://www.forbes.com/sites/steveschaefer/2013/08/07/tesla-shares-get-a-charge-out-of-another-surprise-profit/?partner=yahootix)\n\nhttp://www.reuters.com/article/2014/04/30/us-autos-gm-treasury-idUSBREA3T0MR20140430\n\nMaybe you should be concerned about companies who actually cause real financial problems.\n\nAnd here, this one's just for you.  http://www.foxnews.com/leisure/2013/05/23/tesla-pays-off-government-loan-nine-years-early/\n\nYou're so lost in the past that you have no vision for the future.\n"
p91
aS'&gt; build its entire infrastructure from the ground up.\n\nActually, Tesla\'s gigfactory will be operated by Panasonic and its patents and its processes:\n\n&gt;Tesla said in a regulatory filing released after markets closed Friday that the two companies have agreed to a production planning process for the $5 billion factory, a price for the batteries Panasonic will supply to Tesla and what Panasonic will spend in installing the manufacturing equipment at the site. Tesla is paying for the construction of the facility while Panasonic Energy Corporation of North America will make the batteries.\n\nTesla "built its infrastructure" in ways that most people would consider a disingeious statement. They are just landlords for Panasonic, trying to avoid tariffs and taxes.\n\n&gt; Citing NationalReview just goes to show that you\'re such a far-right winger\n\nThe last avenue for the guy proven wrong on the internet: name calling. That source is 100% accurate. Liberal papers dont like to write about corporate welfare for EVs because people like lose your shit when exposed to reality of economics and your mindless fanboyism can\'t handle that Elon might be wrong about EV\'s  and that he\'s literally getting corporte welfare stolen from the pockets of the middle class and working poor to pay for luxury cars for the top 10%.  I\'m the liberal here - I don\'t want the working people to pay for rich people\'s toys. '
p92
aS"What is the life span of these batteries? How long before they need to be replaced?\n\nEdit: Isn't this a roadblock to the future clean energy earth we want. If we have batteries for cars, homes, businesses, everything. Doesn't that point to a future where we could possibly run out of battery material?\n\nLet me ignorantly propose a solution that to me seems more in tune with the future that we want:\n\n1. The earth is always supplied with  a non-interrupted source of energy in the sun. \n\n2. The only problem is the day/night cycle, where we are plunged into darkness for half the day, or else the weather, which can interrupt energy flow. \n\n3. I propose Bit energy, a worldwide internet of energy. An initiative where the excess power is syphoned of those who are in the daylight and with good weather, and is distributed to those in night time/ bad weather. \n\nI am no electrical engineer, but I am guessing this will remove the high dependency on batteries that will come  from the current model Tesla is promoting.  Not to knock Tesla, but I just don't understand why we need to store the energy if there is a way that we can minimise it . \n\nTo my ignorant self, the only roadblock is political, but I can see this as a way of promoting inter dependability between nation states, and I don't see it as a mammoth task either. The electrical distribution systems in every country just need to connect to a neighbouring country e.g. U.K. builds a line to France, Holland, and perhaps across to America. China builds to Japan, Pakistan, India. In this way the whole globe is connected. \n\nEvery country needs its solar farms. Perhaps even each household can have their own solar panels and feed the electricity in to the network. \n\n\nAgain, I'm no expert, but just from viewing the earth as one system, that has an uninterrupted supply of power, always, we should be thinking of the most elegant and least waste producing solution. \n\n\n\n"
p93
aS"You shouldn't be expecting to replace your car battery every 1.5 years. The range of a Tesla is 265 miles. Even if you have a relatively long commute of 50 miles a day, that's still only 73 times a year, giving a Tesla battery nearly a ten year lifespan.\n\nBut yes, with an electric vehicle you should expect to replace the battery pack (several thousand dollars) every ten years.\n\nThat said, the people who can afford electric vehicles are more likely to just buy a new vehicle."
p94
aS'Not every business has such an untapped market and all the goodwill that Tesla has.'
p95
aS'hes in a position where he and his company would benifit massively from another major company entering the market.  Being the only player out there on the edge has huge risks as well as rewards.  Plus the problem for many of the products Tesla makes is the extremely high cost of certain component technologies because of their specialized nature, small market, and cutting edge nature.\n\nanother major research design manufacturer with the right technological background would knock down walls right and left for Apple and Tesla...Tesla would see the effect of competition on sales, investment, and public attention, all of which it would have to split with apple.  But I think those downsides would be dwarfed by the upsides of new suppliers and economies of scale entering the market\n\n\nMany companies are not in this position and will see their business and profits hurt by competitors entering the market.  They know that is still good for the consumer, but if it is going to hurt your company that doesnt matter too much when you are CEO'
p96
aS"It's not too late. I bought in around $35 waiting for a pull back and it's been off to the races since with just a few 20% or so pull backs every once in a while.\n\nTesla has about a $30B market cap right now. If they do the car thing right and sell as many cars as BMW, they could be a $60B company.\n\nIf they are able to do all the things they envision around battery packs, solar energy, charging stations, and transportation, they should be one of the biggest companies in the world... i.e. $300B+\n\nOne metaphor I think about. Imagine if you could by stock in Shell Oil, Exxon, or another company early in life while they were setting up gas stations around the world. Well that's what Tesla is doing with their charging stations. The real estate/etc of those stations could be worth a lot by themselves.\n\nRisks to their business include other companies outperforming them (Tesla does open source their patents making this a bit easier) at their own game. However, they do have a huge head start with the Gigafactory and their executions. People will underestimate that moat, just like people underestimate how hard it is to scale a business like Netflix, while in reality they are always one step ahead of the competition.\n\nThis is not stock advice ;) but I am invested in Tesla and expect a potential 10x return over 10 years yet."
p97
aS'Tesla is the only one who isnt just repurposing their old car manufacturing process....as a result they are designing the car around the technology, and thus they go in their own category.\n\nI was assuming apple would enter the industry in a similar way.'
p98
aS"The other option if you don't have the money for actual Tesla stock would be to look at related companies that will benefit from Tesla's success.\n\nFor example, Western Lithium is the one of the only (if not the only) provider of Lithium in the US.  It's located in Nevada right near where the battery factory is going to be built.\n\nTesla will likely need as much Lithium as they can get their hands on, and WLCDF is at .69 a share, vs. TSLA at $230.  (and that's up from the mid .40's in March)"
p99
aS"There's a few things here.\n\nThere are cheaper, heavier battery chemistries-- but they also generally have non-homeowner-friendly downsides.  Lead-acid will get the job done cheap, but your average homeowner is probably going to brick them all via missed or incorrect maintenance.  Lead-acid batteries can be totally ruined in just a couple of weeks of incorrect upkeep.\n\nLithium ion has a large advantage in performance in high-discharge applications-- things like running your air conditioner or heat pump, for example.  A lead-acid battery gets less and less efficient the faster it is discharged.  Nameplate capacity is usually quoted as if the battery is discharged over a period of 20 hours.  Even just discharging it overnight, in ten hours, loses 15% of the capacity.  Discharging it one hour means you lose half of your capacity.  Lead acid is still cheap enough that you can simply buy twice as much battery to overcome this... but the difference is not as stark as nameplate capacity would suggest in real-world applications.  You can dump the entire capacity of a Li-ion battery in 30 minutes, and it suffers only a minor drop in efficiency.  For a real-world comparison, use a rule of thumb that you need twice as much capacity if you use lead-acid as you do lithium ion.  It's still cheaper, but not by nearly as much as it seems.\n\nAnd finally, Tesla needs the economy of mass production for battery applications that *are* weight-sensitive.  They make electric cars.  But they don't make *enough* electric cars to justify this massive battery plant they're building-- so finding a way to sell the batteries independently of the cars is an excellent way to bootstrap the business."
p100
aS'Tesla is no more banned from selling cars in any state than any other car company is. \n\nTesla can sell cars in any state - they just have to do it the exact same way as every other car company.\n\n| Item | Ford | GM | Chrysler-Fiat | Honda | Toyota | Hyundai | Kia | Sukuki | Tesla |\n|-------|-------|-----|------------------|--------|----------|------------|----|----------|--------|\n| Barred from selling cars | No | No | No | No | No | No | No | No | **No** |\n| Barred from selling nationally | No | No | No | No | No | No | No | No | **No** |\n| Barred from selling in any state | No | No | No | No | No | No | No | No | **No** |\n| Allowed to sell cars directly to the the consumer | No | No | No | No | No | No | No | No | **No** |\n| Required to sell cars through a dealer | Yes | Yes| Yes | Yes | Yes | Yes | Yes | Yes | **Yes** |\n\nAnd i don\'t care about down-votes, especially when i\'m right. But in this case i think it\'s time for an education lesson. I\'ll quote one of [my most upvoted comments ever](https://www.reddit.com/r/technology/comments/1ea8pt/north_carolina_may_ban_tesla_sales_to_prevent/c9ybfvq), in an attempt to spread knowlege to people who have none.\n\n-----------------------\n\nI\'ve been trying to find the justification, given by states when enacting *Automobile Franchise* laws. All i can find is mention that [*"most states have laws preventing automobile manufacturers from selling directly to consumers"*](http://www.justice.gov/atr/public/eag/246374.htm). Which all link back to an opinion paper that the laws be abolished.\n\nCan anyone find the text of *any* state law, or give the rationale behind it?\n\nAnd spare me the:\n\n&gt; *corrupt politicians on the payroll of corporate fat cats bribery [crony capitalism](http://www.reddit.com/r/technology/comments/27im6y/tesla_wins_back_the_right_to_sell_direct_to/ci1fz7a) [lobbiest](http://www.reddit.com/r/technology/comments/27im6y/tesla_wins_back_the_right_to_sell_direct_to/ci1956o) hurr durr*. \n\nI\'d like to hear the other side of the argument and decide for myself. But first i have to hear the other side.\n\n**Edit:** [Found it](http://www.law.fsu.edu/journals/lawreview/downloads/293/Forehand.pdf).\n\nThree companies controlled 95% of the automobile market in the country. They had tremendous power:\n\n&gt; Dealers are with few exceptions completely dependent on the manufacturer for their supply of cars. When the dealer has invested to the extent required to secure a franchise, he becomes in a real sense the economic captive of his manufacturer. The substantial investment of his own personal funds by the dealer in the business, the inability to convert easily the facilities to other uses, the dependence upon a single manufacturer for supply of automobiles, and the difficulty of obtaining a franchise from another manufacturer all contribute toward making the dealer an easy prey for domination by the factory. \n&gt; \n&gt; On the other hand, from the standpoint of the automobile manufacturer, any single dealer is expendable. The faults of the factory-dealer system are directly attributable to the superior market position of the manufacturer\n\nIn 1956, [public opinion wanted to limit the power of the big 3](http://www.law.cornell.edu/uscode/text/15/1222):\n\n&gt; Any manufacturer can be sued by their dealership if the manufacturer fails *to act in good faith in performing or complying with any of the terms or provisions of the franchise, or in terminating, canceling, or not renewing the franchise with said dealer*.\n\nThe question becomes: \n\n*Do i care if a car company threatens to, or actually does, drive a dealership out of business? Do I care if a manufacturer has that much power over the economy?*\n\nThe answer is: *No, i don\'t.* \n\ni don\'t care if Microsoft decides to forbid PC manufactures from pre-loading another web-browser on the PC. i don\'t care if Apple forces customers to use iTunes. i don\'t care if XBox is online-only, and SimCity requires always-on DRM. i don\'t care if Bell was too big, if IBM was too big, or the Banks are too-big-to-fail.\n\ni certainly don\'t care if Tesla motors controls 95% of the manufacturing sector in the economy.\n\nSo, bring it to a vote: and see how many other people don\'t care.\n\n----------------------------\n\nHere endth the lesson.'
p101
aS"Really? Hearing this makes me think I'd never want to work for Elon Musk but that's about it.  \n\nWhy wouldn't you want to buy something from a company with incredibly expectations on employees?  It's not like they're working for Foxconn, an unhappy Tesla employee can probably find another similarly paid job pretty easily.  "
p102
aS"Food and water and vaccines requires refrigeration, sterilization, transportation, and logistics to distribute them. All of those require electricity, and cheap solar means they don't have to build a super expensive grid system to deliver it, or rely on expensive electricity from gas/diesel generators. Once again, solar is the cheapest option for electricity in certain markets and it happened with economies of scale.\n\nI didn't say one invention or one person will solve the world's biggest problems, try to respond to what I actually say in my post.\n\nFacing reality, you don't have the background to understand how big of a deal Tesla is currently, and will continue to be, so responding anymore isn't worth it."
p103
aS"&gt;Is he really saving anything or just good at marketing?\n\nSolar cities is helping the world tranfer over to solar energy, so **YES**. Tesla is making leaps and bounds in the electric auto industry, and giving away patents, so **YES**. Seriously, just because you're angry that he was unfair to someone doesn't mean you should forget all of the obvious good that his companies are doing right now. \n&gt;is treating your employees like shit going to be the difference the succeeding in that goal or not?\n\nSome employees are always going to get the short end of the stick, either because they're unlucky or because they're fucking annoying. I'm not sure which is the case in this scenario but either way, it does nothing to discredit Musk. Also, the fact that he's *good at marketing* is the only reason he was able to create a multi billion dollar industry using his funds from Paypal."
p104
aS"GM is one of the main proponents in making sure Tesla cannot sell directly to consumers in most states.\n\nSince when are $80-120k cars cutting into GM's sales? \n\nMy neighbor just paid $130K+ for his Tesla, it's not like it was a tossup between that or a Volt."
p105
aS'Because they know that once Tesla gets affordable, GM is toast.'
p106
aS'99.9 % statistics are made up on the spot.\n\nif you seriously trying to say "people dont test drive" that is an idiotic statement. This is the same reason beloved Tesla has a test driving option.\n\n\nI can some what agree with the interior statement...but if you buy enough cars, you will know often times the interior pics is never exactly like it is in real life.\n\nfurther, what about fuck ups? how do i "return" a car?'
p107
aS'I test drove a Tesla a few months ago, just walked in and asked if I could. No sales pitch what so ever. Tesla seems to already have it figured out.'
p108
aS'It happened slowly over time. Car dealerships are a little bit like franchises. The owners assume the risk of the start-up investment for the opportunity to sell to consumers in their local market. When the manufacturers got big enough that they felt comfortable assuming that risk themselves, they were a ton of people working at those franchise dealerships. Fearing for their jobs and livelihoods, they lobbied their local and state governments for protection from the manufacturer coming in and selling directly to customers, which would have drastic negative consequences for those dealerships and their employees.\n\nThere are a lot of laws like these that protect the status-quo. People on both sides have strong interests in the situation. Those against direct sales point to the short term economic disturbances while those for argue that the long term gains outweigh them. Regardless of which position is "right", we won\'t know for sure until the change has taken place. This usually means he status-quo continues.\n\nNow, Tesla has never had any franchise dealerships, so there\'s a very strong argument that they should be exempt from these protections. This is strengthened by the fact that other big auto makers do not currently have a long range EV that competes with Tesla\'s products. Eventually, Tesla will win out, but progress is rarely quick and even more rarely pretty.'
p109
aS"But Tesla IS different than the 'big three' - Tesla has no dealerships to take advantage of.\n\nI don't see why both can happen - allow Tesla direct sales and allow pre-existing dealerships to be allowed to sue for damages if their manufacturers decide to go with direct sales."
p110
aS"Except that's not really how it works. Manufacturers establish an MSRP. *That's* the price you work with. The profit the dealer makes is the difference between the final number and what the dealer pays for the car at cost. Tesla isn't necessarily selling cheaper cars, they're just keeping more of the profit because they're no longer selling them wholesale. You, as a buyer, won't see a change in price. You're still using the MSRP as a baseline. \n\nDealers actually do serve a purpose. Most manufacturers can't afford to run dealerships all over the country, so they sell their cars to dealers in bulk. Back in the 60s, Volkswagen sold directly to the public. They sold *a lot* of cars. They didn't sell a lot because they were selling directly to the public, they sold a lot because people wanted bugs. Dealers got the misconception that direct to buyer sales were hurting their business and lobbied to get it outlawed in some states. This worked out pretty good because Volkswagen was now selling even *more* cars through 3rd party dealerships, so they didn't fight it. This whole thing is so incredibly blown out of proportion. "
p111
aS"It a law because its been determined that dealerships are a positive for the community. They employ people, sponsor local events, give to charity etc. Also, they have certified shops to repair cars. What I can't stand about Tesla is they want to be a special snowflake because their cars are electric. If Tesla wants to sell directly to consumers, everyone else should be allowed to as well. If everyone else has to have dealerships, then Tesla has to as well. They are just a car company."
p112
aS"&gt; There are very few parts to break\n\nThere's still plenty of parts to break. Suspension, window motors, bearings, you name it. Those things aren't going to be significantly different on a Tesla, and Tesla doesn't manufacture all those various parts. They source them from vendors like all the other manufacturers."
p113
aS'"Tesla has a presence in those states, but its stores are really nothing of the sort. They are instead galleries where its representatives are not salespeople and cannot tell you what the car costs, nor can they actually help you purchase one. Instead, thanks to the free-flowing capitalism of Republican governors like Jan Brewer of Arizona, Rick Perry of Texas and Bob McDonnell of Virginia, would-be Tesla customers get to look at the cars and then head home to buy them online. (So far, you can still do that everywhere.) Not that things are much better in Maryland, where Democrat Martin OMalley runs things. There, you can at least take a test drive at a Tesla gallery. After that? Still no purchase allowed."\n\nYou can go, check them out, learn about features but you can\'t hear 1.) the price and 2.) they can\'t help you buy it. You have to leave the store, go home and order it.\n\nhttp://www.forbes.com/sites/markrogowsky/2014/03/15/after-the-new-jersey-ban-heres-where-tesla-can-and-cannot-sell-its-cars/'
p114
aS'Tesla is not capable of opening dealerships right now. They have neither the manufacturing capacity to produce a fleet of vehicles to sit on lots, nor a sufficient program to train mechanics to service their vehicles quickly and at scale. So it\'s decidedly not the case that "if a dealership provided value to customers, then there would be Tesla dealerships". There are other reasons.\n\nSome day Tesla may have the capacity to build more than a few thousand cars a month at a 30-60 day lag behind new orders. Some day they may have nationwide training programs to certify mechanics to work on their vehicles. When those things come, then they would be capable of creating dealerships, whether they\'re company owned or franchised. Until that day, it\'s impossible to say whether there are no Tesla dealerships because they provide no value, or simply because Tesla is incapable of opening them yet. \n\nShowrooms and company service centers are all they\'re capable of right now. They barely even have the manufacturing capacity for that: in just the past year, they\'ve had to deliver part of their meager fleet of test drive vehicles to customers in order to meet quarterly delivery goals. '
p115
aS"And that's what Tesla lets you do from their stores. "
p116
aS'When dealer franchise laws were passed, they were passed because automakers were screwing over customers left and right. \n\nThey wouldn\'t sell parts to anyone except company-owned dealers and would purposefully not compete with rival manufacturers, dividing the country into regions where a customer could only choose from a handful (or a single) of manufacturers. \n\nSo the states banned direct sales and said "you have to go through a middleman" which meant that a city could have both Chrysler AND Ford dealerships, and multiple dealerships could compete on the basis of price for automobiles and repair parts. \n\nAs a side effect, with so many independent dealers an entirely new market of regional parts dealers and brokers was created to service the thousands of dealerships, a task that big automakers didn\'t want to take on, and that led to the sale of parts to specialized retailers like Autozone and NAPA. \n\nNow there are many more manufacturers (on the surface) with European and Asian imports and the emerging electric car manufacturers. \n\nBut if a new manufacturer (or completely new model of auto ownership) leads to the extinction of the major automakers what do you think the chances of anti-consumer practices emerging again are?\n\nCan I get a replacement door handle or windshield wiper arm assembly for a Tesla at Pep Boys? Can Tesla be forced to sell them wholesale to the tens of thousands of retail stores in the country?'
p117
aS"The difference between the Leaf and the Tesla is you're buying the leaf from a dealership not directly from Nissan while you buy the Tesla directly from them, for some reason it's not okay to do that. "
p118
aS'What klisejo is saying is that in the event that Tesla got their wish, they would become the dealers competitors.'
p119
aS"I don't think Tesla gives a shit about this. People wanting to buy a Tesla will do it in a neighbouring state and import it."
p120
aS"Sad?  Tesla died angry and insane, no reason to believe his ghost wouldn't be the same.  He'd probably start with descendants of Edison and Marconi (Marcogni?)."
p121
aS'For a state where buying a Tesla is illegal, there sure are a lot of them around here.'
p122
aS"It's not competition for retail space that's the Dealers worry about. Tesla could have opened up a dealership in Texas and the GM and Ford dealers wouldn't be worried one bit. It's Tesla going away from the dealer business model that they are frightened of. They don't want a precedent set for other car manufacturers to start selling directly to customers. \n\nThe dealers are just seeing the end of their profession. At some point in the future, it wouldn't surprise me if many cars are sold directly to the customer from the manufacturer. The only thing dealer's offer for a new car purchase is the ability to test drive models. I can think of other ways for manufacturers to offer that. "
p123
aS"This isn't the 60's and Tesla is not a struggling company. If there are 3 places to take your tesla in Sioux Falls, SD and there are 10 places in all of South Dakota which probably has 5-20 Tesla brand vehicles in the entire state then I should venture a guess that aquiring the tech to repair these is not hard, and with enough demand can easily be obtained.\n\nEdit: proved myself wrong, maybe. Tesla's site doesnt list service centers in South Dakota"
p124
aS'Elon Musk.  Tesla is the company name.'
p125
aS"Dealerships were made important because manufacturers were creating unfair competition (not sure it was but hey). They were selling Chevys, Chevy was selling chevys, it was a problem. The dealerships needed a way to be protected from being undercut.\n\nThe key difference is this: Teslas are not sold in dealerships. There is no unfair competition for the same product. Tesla is not letting dealerships sell their cars because they want to control the quality of the sale and their product is so unique that dealerships can't do it. Not to mention the hissy fit mainstream manufacturers would pitch if they had to compete against Tesla."
p126
aS"Furthermore since unlike a Best Buy where Apple can just have their products sold there, I'm pretty sure Tesla is forced to open their own dealerships since I assume no Ford-Lincoln or Chevy-GMC dealers are going to let him sell his cars there. "
p127
aS'Tesla has no obligation to talk to anyone about his own business.  Do these so called "Senators" even understand what a Free Market system is?  I would think so, because I hear them waving that term around like a battle flag anytime someone criticizes US economics.  So listen Senators, you can\'t have it both ways.  The only reason you are scared of Tesla is because he threatens to cut capital from the car companies which the US government bailed out, without support form the people mind you, and Tesla also threatens to put and end to our reliance on foreign oil.  You are a politician Senator.  You work for the citizens of this country.  Not General Motors, Not Ford, Not Big Oil.  Not the Republican party.  Maybe you should stop and shut your mouth and take a moment to wipe the egg off your face.\n\n'
p128
aS"You're not wrong. The reason Tesla doesn't do that is added cost to the consumer. Ford, GM, and others don't own or franchise their dealerships. Private individuals start a business and enter into an agreement with one or more automakers. This is the method of buying a car that people are trying to protect by law in a physical retail space because it allows a third party, the dealer, to mark up the price and make a cut. Tesla is attempting to skirt that process in order to keep costs down for consumers. "
p129
aS'And that\'s exactly what will happen. In fact, the only person I actually know that owns a Tesla lives in Austin. However, "driving out of state" when you live in Texas is not as easy as it is in other states. Texas is *big*.\n\nEdit: It seems you can buy a Tesla on the internet and have it trailer-ed to your house. This law just means you can\'t test drive a Tesla from a "showroom", talk pricing or financing with a Tesla sales rep, or order it at their "store". It seems this legislation is merely lip-service, and does very little to actually restrict Texans access to Tesla automobiles.\n\nSeriously, if you\'re going to be waiting over a month for delivery regardless, this isn\'t about Tesla at all. It must be about avoiding precedent for direct sales to protect existing dealerships.'
p130
aS"You people are dense. Tesla makes cars, dealers sell cars. If Tesla went through dealers, they would be the opposite of competition, they would literally be customers. They buy a fleet of cars, and sell them.\n\nTesla wants to be the manufacturer and the retailer, and a lot of places don't allow it because the separation of manufacturer and retailer promotes competition among dealerships.\n\nI feel like this website is just full of people who know fuck-all about how any type of business operates. Just because buying a car sucks, that doesn't mean its the dealerships fault. The alternative of having manufacturers sell would just fix prices across the board, and it would centralize the money to corporate head quarters instead of keeping that business locally owned and operated."
p131
aS"In Texas: You walk into a Tesla show room, sit in a car, talk with a Tesla employee. You like the car, so the Tesla employee tells you to go to teslamotors.com to order one. 30-60 days later, you pick it up or have it towed to you from a bordering state.\n\nOutside Texas: You walk into a Tesla show room, sit in a car, talk with a Tesla employee. You like the car, so the Tesla employee brings you to a computer in the back and sits next to you while you go to teslamotors.com to order one. 30-60 days later, you pick it up or have it towed to you.\n\nNot much different... Tesla doesn't have dealerships where you can pick a car off a lot, buy it and drive it home in any state. You have to order online, and wait for delivery. The only difference between states with weird dealership laws and those without is whether you can talk to someone in-person about pricing, financing, and test drives."
p132
aS'say I want to sell you a electric car, well in Texas I have to sell it to jim bob, then jim bob will mark it up and sell it to you. what Mr. Tesla wants to do is cut jim bob out, now the problem is jim bob and his daddy have given a lot of money to the people that make the rules, so everyone has to pay jim bob to play. '
p133
aS'In the short-term (meaning: next 2-3 years) the only inventory Tesla is going to be able to stock are pre-owned Model S vehicles as their 3-year leases expire.'
p134
aS"Tesla doesn't sell their cars for free either.  The guy at the tesla store has to get paid.  You could actually make an argument having a dozen dealers in an area competing with each other results in lower dealer fees than if Tesla just does it.  That is the same argument capitalism is based on ;)"
p135
aS'"Mr. Senator, how do you respond to the allegations that claim you are a communist?"\n\n"Mam You and your audience know I\'ve been a believer in capitalism since I was a boy. I fight to protect it in the senate every day." \n\n"Then sir why did you block direct Tesla sales? Isn\'t that defeating the point of capitalism?"\n\n"Look my nay sayers are going to try and say a lot of things to rattle my jimmies but let me tell you this, dealerships are a huge job creator in our state and protect consumers. These direct sales are like Obama Care, we must repeal it to protect the country."'
p136
aS"clearly you don't understand... Tesla is magic and Musk is the prophet of reddit."
p137
aS"Tesla didn't talk to the business lords about where they could do business."
p138
aS'Texas has shitty laws that require car manufacturers to sell through dealers, and Tesla wants to sell directly to consumers. Basically, Texas (and the US as a whole) is corrupt and money donated by people dictates the way business is allowed to operate. Since dealerships have a powerful lobby, they are able to get their way.'
p139
aS"Tesla knows everything that happens to their cars. It's not advertised, but they'll call you if the car has a collision. Oddly, the car doesn't tell the driver though, in recorded crash tests the screen tells you a bunch of stuff is broken and to go to a service center. One guy went through a concrete wall and into a tree and they were able to recover data to find out what happened; he was going very fast."
p140
aS"Ford is actually charging a fee for licensing the patents, whereas Tesla made them available for free. \nIts still a good initiative though; hopefully it will accelerate other manufacturers' adoption rate!"
p141
aS'Yeah title is misleading. Tesla have them away, Ford is just selling them. Big whoop'
p142
aS"&gt; Tesla made them available for free.\n\nUhh, not really, no.\n\nhttp://www.forbes.com/sites/briansolomon/2014/06/12/tesla-goes-open-source-elon-musk-releases-patents-to-good-faith-use/\n\n&gt;will not initiate patent lawsuits against anyone who, in good faith, wants to use our technology.\n\nThat's super ambiguous."
p143
aS"But still more free than straight up saying you're going to charge a fee in 5 years.\n\nTesla is simply trying to protect itself from companies cloning their products. You can use their battery patents, sure, but don't use them to make a physical copy of the Model S."
p144
aS'Nikola Tesla was a scientific genius, but his superior ideas and advancements in electricity were "out-marketed" by Thomas Edison\n\n**Edit:** Because of the very many, opposing, and angry replies I\'ve received, I will attempt to make this more ambiguous.\n\nTesla is to Thomas Edison as, potentially, Elon Musk is to other car companies in a business sense. This does not bode well for the success of Elon Musk, making it ironic that the company is named Tesla.\n\n**Edit:** As someone else pointed out, he named it Tesla because the cars run on ~~DC~~ **AC** and he, like Tesla envisioned, is bringing ~~DC~~ **AC** to the people. What\'s ironic is that it is fitting for the above reason as well, which Elon Musk probably did not intend.\n\n**Edit:** DC to AC'
p145
aS'Good point. Tesla does believe they could use the entire Gigafactory to produce only grid storage batteries. But they\'re a bit of an "all in" sort of company. So a failure of the entire car side of the business would likely mean a buyout of the battery side.'
p146
aS"Someone else could explain this better, but a quick ELI5:\n\nNikolai Tesla had great ideas but made little money. Musk's Tesla is attempting to change the world while remaining sustainable. "
p147
aS"So Tesla isn't even giving out the patents for free at all, they are just trading them for a nuclear option.  Other company use Tesla's trojan horse, then Tesla can copy their inventions without being sued."
p148
aS"Lol... I actually have never seen this. What a joke.\n\nSo if you use any Tesla patent and then later you both happen to clash on some other patent in an area where you both do research then you lose the right to the old Tesla patent if you challenge Tesla.\n\nAnd you basically give Tesla the right to use **all your patents**, because you can't assert them against them anymore?\n\nWell, no wonder nobody touches those patents..."
p149
aS'Does that mean Tesla was the first Woz?'
p150
aS"Everything I know about Edison says he basically stole most of his inventions from interns working under him and was only successful over Tesla because he had more business connections and influence established in America whereas Tesla was a foreign immigrant. Not to mention Edison went around killing dogs with electricity to try and smear Tesla's AC."
p151
aS'Tesla worked for Edison before jp Morgan.  He left as Edison refused to let Tesla pursue his superior ac technology.'
p152
aS"Tesla didn't open all their electric vehicle patents. They said that anyone can use their patents and they won't sue unless they think you deserve to be sued. This is a useless promise.\n\nAnd this also doesn't open them, this is an offer to *license* them.\n\n'Ford says there will be a licensing fee.'"
p153
aS"Wrong. Tesla worked for them twice. This is when they built Wardenclyffe Tower because Tesla promised Morgan that he has a better way of transmitting wireless communication than Marconi's radio based telegraph. Although not directly working with G.E but Morgan's interest aligns with it so he backed the project. See: http://en.wikipedia.org/wiki/Wardenclyffe_Tower"
p154
aS"Within the arena of electric vehicles and equipment that directly relates to electric vehicles (I imagine that means things like the plugs used to charge the car, or something). That may or may not relate to batteries; I don't know.\n\nHowever, this is actually very similar to 'Copyleft' - things like the GNU GPL. The idea of the GPL is that if you make a program, and you link a GPL'd library into your program, your program *must* be open source as well under a 'GPL-compatible' license. This means that if your program has GPL'd code compiled/linked into it, your program has to also be open source.\n\nTesla is doing the same thing. If you put our technology into your electric cars, your electric car technology is also open. Though open to Tesla, rather than open to everyone. Which, for a business wanting to limit the technology only to themselves, sounds like the same thing."
p155
aS'Superior is subjective in this case. AC could be sent longer distances with less loss which was the goal at the time. DC could only be sent short distances without loss at the time. Today, we\'re seeing datacenters convert to DC power for server farms to save on power loss converting from AC down to DC. It\'s a small case, but it reinforces the idea of "right tool for the job."\n\nEdison\'s thoughts about power distribution consisted of numerous small power stations supplying DC power to the grid. Tesla\'s favored a few power stations feeding a large grid, which is what we have today. But we are also seeing an uptick in home solar and business wind turbine installations, which is a move towards Edison\'s vision of a decentralized grid.\n\nThe "AC good, DC BAD" and "Tesla was awesome and Edison killed puppies" arguments are gross oversimplifications. Edison was a dick of a businessman, but that didn\'t make him unique for the era (Andrew Carnegie for example had his workers machine gunned.) Tesla had fantastic ideas, but they were all glorious zen koans of wisdom (such as a wireless power grid.)'
p156
aS'&gt; Within the arena of electric vehicles and equipment that directly relates to electric vehicles \n\n"asserted, helped others assert or had a financial stake in any assertion of (i) *any patent* or other intellectual property right against Tesla *or* (ii) ..."\n\nThen the next clause loses your Tesla patent rights over "*any* challenge to *any* Tesla patent".\n\nThe EV clause only applies to EV patents when 3rd parties sue other 3rd parties when Tesla isn\'t even involved and it isn\'t over any of Tesla\'s patents; they don\'t want any patent war started because they don\'t have many patents and will lose big time.  I don\'t even understand how anybody can misread this much, and you\'re like to fourth person to post about this...'
p157
aS'Ford uses Tesla\'s battery pack controller because it\'s "free".  Tesla copies Ford\'s new bladeless windshield wiper.  Ford sues.  Tesla gets an injunction to stop Ford from using their battery packs.\n\nThis is exactly what it says.'
p158
aS"Journalists are stupid, so these stories make Elon Musk out to be a philantropist. No he's not. By offering up the patents around charging, he's hoping to make the Tesla charging the overall standard. There are now three standards for speed charging. He wants his to be the new default. In a way the battle is similar to the battle of his company namesake had 100 years ago. "
p159
aS'Thanks. Shame I had to look down this far to find someone that knows this, I drive a Model S, I like Tesla and have followed them for many years, long before Musk was CEO but the key reason for "opening" the patents is about control, the opposite of what is claimed. \n\nThere are also some fairly nasty clauses in the terms to use them as well, rather than a license fee, instead you get a sword hanging over your head; do something Tesla doesn\'t like at a later date, yoink, patent license revoked. It is simply a means of control and some great PR which seems to have worked wonders, especially on Reddit.\n\nLikewise Ford following their lead isn\'t true, they are just up for licensing some of their patents commercially, like many other companies already do in other industries. \n\nIt\'s not only journalists that are stupid there are wide sections of Reddit that think Elon Musk is some kind of charity worker, he\'s a ruthless self promoter and exceptionally good at it.  \n  '
p160
aS'The announcements yesterday contradicted themselves. The headline read "follows Tesla\'s moves" and then the article said "use their technology for a fee."\n\nEither the headline writer didn\'t read the article or didn\'t really know what Tesla did with their patents.  The contradition was right there on one page.'
p161
aS'Both companies said something like "We are opening our electric vehicle patent portfolio to anyone"\n\nAnalogy: Tesla left the keys in their car and said "free to anyone, anytime." Ford put a "For Rent, terms negotiable" sign in their cars window.'
p162
aS"Without seeing the press release that Ford sent to the papers before they got done with it, it's hard to say whether Ford was implying that they were doing what Tesla did."
p163
aS'Yeah, I still don\'t buy Tesla\'s offer, either.\n\nThere are several things that Tesla could do to "walk the talk" with its patent offer:\n\n1) It could expressly abandon its patents. All it takes is a one-page form filed with the USPTO.\n\n2) It could publish, on its website, a form that grants a free, irrevocable license to its patents, already signed by Tesla. Just download the form and sign it, and *poof*, free license.\n\n3) It could create a standards body to grant free patent licenses for companies that implement the technology "fairly," according to some definition. Exhibit A for why standards bodies work: Wi-Fi, which is managed by the Wi-Fi Alliance.\n\nTesla hasn\'t taken any of those steps. Its sole action, literally, has been Musk\'s PR pledge not to sue anyone... which has no legally binding value whatsoever. Tesla could easily change its mind - or get bought out by another auto maker with a different agenda.\n\nSo while this pledge has conferred a ton of PR feel-good vibes on Tesla, it\'s legally meaningless.\n\nMeanwhile, there are signs that Tesla might not quite mean what it says... like the fact that [it keeps pursuing and paying for new patents](http://patft.uspto.gov/netacgi/nph-Parser?Sect1=PTO2&amp;Sect2=HITOFF&amp;u=%2Fnetahtml%2FPTO%2Fsearch-adv.htm&amp;r=1&amp;p=1&amp;f=G&amp;l=50&amp;d=PTXT&amp;S1=tesla$.ASNM.&amp;OS=an/tesla$&amp;RS=AN/tesla$). Tesla has won, and paid the issue fee for, three new patents in May 2015, and six new patents in March 2015. Why would it maintain such extensive (and expensive!) efforts to expand its patent portfolio if it has no plans to enforce any of them, ever?\n'
p164
aS'&gt; Tesla needs to protect itself from other people patenting Tesla\'s ideas and then charging Tesla for use of those ideas.\n\nThat\'s called "defensive patenting." Thousands of companies routinely engage in that practice - including a top-tier network hardware vendor that I visited two weeks ago.\n\nDefensive patenting is a perfectly valid strategy. But it\'s not even in the same ballpark as Tesla\'s portrayal of its situation - nor the tech community\'s misunderstanding of it.\n\n&gt; Making something free and keeping it free is harder work than simply throwing it into the public domain and hoping that everyone will "do the right thing".\n\nI totally agree. And that\'s why strategies like defensive patenting are legitimate. Other, more proactive strategies are also available - like standards bodies.\n\nAgain, the Wi-Fi Alliance is an excellent model here. You don\'t see a whole lot of lawsuits about Wi-Fi, do you? Either manufacturer v. manufacturer, or troll v. manufacturer? No - everyone just does their thing, works toward increasingly powerful products, and lets the Wi-Fi Alliance handle the licensing details. Intercompatibility is damn near 100%; yes, your Linksys Wi-Fi adapter will communicate perfectly through the generic Wi-Fi network stack on your computer with that Belkin Wi-Fi router over there. Great, right?\n\nIf Tesla were serious about wanting to promote lawsuit-free cooperative technology development, that\'s what it would do. Notice that it hasn\'t. Notice that it has continued to acquire patents. There are some hard questions here about whether Tesla means what it says.\n'
p165
aS'Anything with "Tesla" in the title gets tons of upvotes here; that\'s why Tesla posts were banned.  It doesn\'t have to make sense or be positive so probably robots.'
p166
aS"Tesla didn't give anything way for nothing."
p167
aS"DAE car companies that aren't Tesla suck? - le reddit"
p168
aS'Original author of the article here... so I disagree.  The focus of the article was on the reporters who spewed the wrong thing, but I *do* think that Ford is partially at fault.  It spun the press release clearly implying it was going to do what Tesla did -- that\'s why most of the press coverage said exactly that.\n\nAnd, yes, the press release walks back the claims, which is why my post LINKS TO IT and quotes the very section you mention.  I don\'t see how me quoting the same lines you did is somehow "disingenuous."\n\nStill, the headline and first line of the Ford press release say that they\'re "opening up" the patents.  Given that this was the same language Tesla used, many simply assumed that they meant the same thing -- and you know that Ford\'s PR people did this on purpose.'
p169
aS'The quote you responded to is referencing the Ford press release.  The opening statement of the Ford press release is "Ford Opens Portfolio of Patented Technologies to Competitors".  That\'s the statement he is saying was misleading, from ford.  By using the same terminology that Tesla did, they\'re likening what they\'re doing to what Tesla did, which isn\'t true.'
p170
aS'&gt; Yeah, I still don\'t buy Tesla\'s offer, either.\n\nSomeone [posted](http://www.reddit.com/r/technology/comments/37l3n6/ford_follows_teslas_lead_and_opens_all_their/crnp0gr) this yesterday:\n\n\n&gt; Well, to be fair, that\'s a press release (direct quote from their blog, actually), not a contract. Check their [legal page](https://www.teslamotors.com/about/legal) for a definition of good faith, or contact Tesla for a patent license. Don\'t make business decisions based on a press release.\n\n&gt; A party is "acting in good faith" for so long as such party and its related or affiliated companies have not:\n\n&gt; * asserted, helped others assert or had a financial stake in any assertion of (i) any patent or other intellectual property right against Tesla or (ii) any patent right against a third party for its use of technologies relating to electric vehicles or related equipment;\n\n&gt; * challenged, helped others challenge, or had a financial stake in any challenge to any Tesla patent; or\n\n&gt; * marketed or sold any knock-off product (e.g., a product created by imitating or copying the design or appearance of a Tesla product or which suggests an association with or endorsement by Tesla) or provided any material assistance to another party doing so.\n\nWhat I got from that:\n\n* If  you use any Tesla patent and then later you both happen to clash on some other patent in an area where you both do research then you lose the right to the old Tesla patent if you challenge Tesla.\n\n* And you basically give Tesla the right to use all your patents, because you can\'t assert them against them anymore?\n'
p171
aS"a plain reading of the press release is all he really  needed, as the successful deception was right there. As for all the requests for detailed research, why bother? is this a simple article pointing out that ford's press release was clearly designed to mislead media (really, who is surprised?), or a research paper? \n\nAs for what Tesla is doing, they are declining to enforce their copyright, which will eventually lead to it becoming defacto public domain, which if they stick with it is far more altruistic (see: at all) than what ford is doing but time will tell. "
p172
aS'I\'m really not sure how "free" Teslas patents are...\n\nSomeone [posted](http://www.reddit.com/r/technology/comments/37l3n6/ford_follows_teslas_lead_and_opens_all_their/crnp0gr) this yesterday:\n\n\n&gt; Well, to be fair, that\'s a press release (direct quote from their blog, actually), not a contract. Check their [legal page](https://www.teslamotors.com/about/legal) for a definition of good faith, or contact Tesla for a patent license. Don\'t make business decisions based on a press release.\n\n&gt; A party is "acting in good faith" for so long as such party and its related or affiliated companies have not:\n\n&gt; * asserted, helped others assert or had a financial stake in any assertion of (i) any patent or other intellectual property right against Tesla or (ii) any patent right against a third party for its use of technologies relating to electric vehicles or related equipment;\n\n&gt; * challenged, helped others challenge, or had a financial stake in any challenge to any Tesla patent; or\n\n&gt; * marketed or sold any knock-off product (e.g., a product created by imitating or copying the design or appearance of a Tesla product or which suggests an association with or endorsement by Tesla) or provided any material assistance to another party doing so.\n\nWhat I got from that:\n\n* If  you use any Tesla patent and then later you both happen to clash on some other patent in an area where you both do research then you lose the right to the old Tesla patent if you challenge Tesla.\n\n* And you basically give Tesla the right to use all your patents, because you can\'t assert them against them anymore?\n'
p173
aS'The part where the author calls "Wall Street types" idiotic is in itself idiotic. Patents give you a competitive advantage to your competition. It allows you to differentiate yourself in a market, which is the most important thing to do as a company. Allowing competitors access to your intellectual property destroys your competitive advantage. Tesla is literally giving away their greatest competitive advantage - their technology- for free. No charges.\n\nThis would be like Google giving away the code to their search engine. Financially, it\'s stupid. I can see how it\'s a nice, good thing to do, but as a business it is a very bad move.'
p174
aS"Well I don't know much in the way of electric vehicles but I can't imagine their patents would make as much of a change as teslas patents. Tesla has advanced electric vehicles so much while ford hardly has anything noteworthy. Maybe I'm just blowing smoke though."
p175
aS'Here\'s a secret.\n\nTesla didn\'t allow all of their patents be to used freely, only the ones related to their battery and energy usage/consumption (conveniently just before building a massive battery manufacturing plant).\n\nAlso, Tesla never really released their patents, they just said (in a non-legally binding way) that people can use their patents "in good faith" and won\'t be sued.\n\nNo definition of what in good faith means and Tesla could turn around and sue everyone a couple years down the road.'
p176
aS"Tesla doesn't have as much to lose by making their patents public. Their cars aren't as mass-produced. I think Ford is charging licensing solely because they *do* have a lot to lose money-wise by releasing patents. Ford is in direct competition with a lot more companies."
p177
aS"I think the main point of the article was to point out how ridiculous the medias spin on the story was, ie, directly comparing them to what Tesla did, making Ford out to be following in Musks footprints when that's clearly not happening right now. "
p178
aS"Tesla is not being unreasonable. They're offering an equal trade. If a company perceives their own patents as more valuable than Tesla's, they can choose not to use Tesla's patents. It's not as if the company would have access to Tesla's patents otherwise.\n\nWhat you're asking for is Tesla to hand out valuable gifts to selfish companies with antithetical and anticompetitive views."
p179
aS"TIL Elon Musk donates his Teslas to third world countries everyday.\n\nELI5 Why can't other companies follow in Tesla's footsteps?\n\nAsk Reddit: Reddit, what would the world be like without Tesla?\n\nNews: Tesla announces that it wants to help people, American government mad.\n\nPics: [I gave this to my parents when they asked about what I want the most. What do you guys think?](http://s3.amazonaws.com/digitaltrends-uploads-prod/2013/08/Tesla-Model-S-burgondy.jpg)\n\nShower Thought: I've never seen Tesla commit a crime so they must be the best company in the world.\n\nTechnology: Elon Musk announces that Teslas will be the car of the future. Ford disagrees."
p180
aS"&gt; And where did Ford mention Tesla at all? \n\nWhy would Ford need to metion them directly. They were trying to look like they were following suite with the exact actions of what Tesla did just months ago. Who wouldn't make the association? Except Ford is charging, and their press release barely mentioned that there was a fee; a few words at the end of the 7th paragraph. "
p181
aS"Other car companies have a problem.  They have a lot of sub-licenced EV tech.  Tesla has it's own stack end to end.  In opening this up the follow things now become true:\n- The only viable common stack is now Teslas.  Plugs, chargers the lot.  This has effectively standardised chargers.\n- Any two bit car company can (providing it can scale it) make an EV car compatible with Tesla's gear.\n- So other car companies have no choice to get on board, or risk new players getting into the market under them."
p182
aS"Yes, they're *totally* accessible in the same way that a country club is completely accessible to me, **after** I pay the entry fee.\n\nThey didn't make them accessible.  They put them up for sale, which is in no way xomparable to what Tesla did, which was making theirs **free**. \n\n**free** is not the same as **for sale**.  Yes you can get access to both, but they're fundamentally different things.  Saying ford did something similar is like comparing a bicycle to a lawn chair because you can sit on both of them.  Both the original press release and this article are being disingenuous and misleading."
p183
aS'None of your post is factual. Tesla allowed all of its patents to be used, hence the blog name "All Our Patent Are Belong To You". Also, there is a definition of Tesla\'s "In good faith" clause. /u/bobpaul found out what it means by looking through their legal page:\n\n&gt;A party is "acting in good faith" for so long as such party and its related or affiliated companies have not:\n\n&gt;* asserted, helped others assert or had a financial stake in any assertion of (i) any patent or other intellectual property right against Tesla or (ii) any patent right against a third party for its use of technologies relating to electric vehicles or related equipment;\n* challenged, helped others challenge, or had a financial stake in any challenge to any Tesla patent; or\n* marketed or sold any knock-off product (e.g., a product created by imitating or copying the design or appearance of a Tesla product or which suggests an association with or endorsement by Tesla) or provided any material assistance to another party doing so.'
p184
aS"The issue is that it's being reported that the patents are free, the same way Tesla did."
p185
aS"All I'm saying is that right now, in my opinion anyway, people are in love with Tesla. That's fair enough, they are doing some pretty awesome stuff.\n\nBut I think they believe Tesla to be unlike every other corporation that are focused on maximising profits and all that. I, personally, don't believe that to be true and when everyone finds out about how Tesla is like every other company who doesn't give a shit about the people, I think people will be very dissapointed."
p186
aS"Until they don't.\n\nTesla has exhibited intellectual-property-protection-seeking-behavior. I'd rather see them publish open specs that they never seek patent protection for."
p187
aS"Is this really a wrong, though?  \nThe government is helping to fund three companies that are actually using that money to innovate, rather than dump billions into marketing every year. SpaceX is working to develop new technology that will make getting into/exploring space more feasible. Tesla has and is still developing technology to make a viable alternative to fossil fuel-based transportation and energy storage. SolarCity is developing improved ways to generate completely eco-friendly energy. In the process there's thousands of jobs being created, new environmentally-friendly tech being put on the consumer market, and more competitors in the free market to encourage innovation from other companies aswell.  \nThese kind of subsidies should be encouraged. As much as they are corporations that want our money, they're doing unquestionably good work. "
p188
aI1
aI0
aI1
aI0
aI1
aI1
aI1
aI1
aI1
aI1
aI1
aI1
aI1
aI1
aI1
aI1
aI1
aI1
aI1
aI1
aI0
aI1
aI1
aI1
aI0
aI0
aI1
aI0
aI1
aI1
aI1
aI1
aI1
aI1
aI1
aI1
aI0
aI1
aI0
aI0
aI1
aI1
aI1
aI1
aI1
aI1
aI1
aI0
aI1
aI1
aI1
aI1
aI1
aI1
aI1
aI1
aI1
aI1
aI1
aI1
aI0
aI1
aI1
aI0
aI1
aI1
aI0
aI1
aI1
aI1
aI0
aI1
aI1
aI1
aI1
aI1
aI1
aI0
aI1
aI1
aI1
aI1
aI1
aI1
aI1
aI1
aI1
aI1
aI1
aI1
aI1
aI1
aI1
aI1
aI1
aI1
aI1
aI1
aI0
aI1
aI1
aI1
aI0
aI1
aI1
aI0
aI1
aI1
aI1
aI1
aI0
aI1
aI1
aI1
aI0
aI1
aI1
aI1
aI1
aI1
aI1
aI0
aI0
aI1
aF0.1545454545454545
aF0.25
aF0.2
aF0.0
aF0.0929499072356215
aF0.4
aF-0.21666666666666665
aF-0.0976190476190476
aF0.09166666666666667
aF0.0
aF-0.025
aF0.1566666666666667
aF0.08472222222222221
aF0.14444444444444446
aF0.0
aF0.25
aF0.12191558441558442
aF0.24675324675324675
aF0.11249999999999999
aF-0.030000000000000006
aF0.5194805194805195
aF-0.09444444444444443
aF0.16
aF0.31
aF0.5333333333333333
aF0.08333333333333333
aF-0.015000000000000003
aF-0.007812499999999993
aF0.09590909090909093
aF0.07329545454545455
aF0.0
aF0.13165907192222984
aF0.11693121693121691
aF0.175
aF0.06339285714285714
aF0.014795918367346941
aF0.09635093167701862
aF0.19722222222222227
aF0.027513227513227517
aF0.01186755952380951
aF0.13333333333333333
aF0.0
aF-0.06944444444444445
aF-0.2
aF0.12320054945054947
aF0.05
aF0.20833333333333337
aF0.1768831168831169
aF-0.09625
aF0.11666666666666665
aF-0.02190882034632035
aF0.0
aF0.11032647907647906
aF-0.06666666666666667
aF0.0
aF-0.2
aF-0.5
aF0.0
aF0.07329545454545454
aF0.015833333333333345
aF0.0
aF0.084375
aF0.3416666666666666
aF0.14166666666666666
aF0.17063492063492064
aF-0.023532196969696967
aF-0.008928571428571421
aF-0.0625
aF0.2
aF0.16666666666666666
aF0.10500000000000001
aF0.20000000000000004
aF0.3
aF0.0
aF0.13333333333333333
aF0.04055555555555557
aF0.26875
aF0.0
aF0.3222222222222222
aF0.26666666666666666
aF0.22045454545454543
aF0.010119047619047607
aF0.3614583333333333
aF0.1375
aF0.1923469387755102
aF-0.03125
aF0.325
aF0.35
aF-0.16666666666666666
aF-0.016666666666666666
aF0.01
aF0.12763888888888889
aF0.05571428571428571
aF0.26212121212121214
aF-0.07727272727272726
aF0.016435185185185188
aF0.24285714285714285
aF0.2
aF-0.2916666666666667
aF0.07249579124579121
aF0.2476708074534161
aF0.22727272727272727
aF0.0
aF0.0
aF0.1125
aF0.175
aF0.15838509316770183
aF0.22087912087912087
aF0.1517142857142857
aF0.0778787878787879
aF0.14166666666666666
aF0.09305555555555554
aF0.2
aF0.02817460317460317
aF0.15000000000000002
aF0.0
aF0.039999999999999994
aF0.14204545454545453
aF0.22999999999999998
aF0.1530952380952381
aF0.2
aF0.23630952380952383
aF0.0
aF0.22064393939393936
acnumpy.core.multiarray
scalar
p189
(g20
(S'f8'
p190
I0
I1
tp191
Rp192
(I3
S'<'
p193
NNNI-1
I-1
I0
tp194
bS'\xf9\xb7\xe8\x17\x1e\xa9\xc6?'
p195
tp196
Rp197
ag189
(g192
S'\xcd;\x7ff\x9e\xa0\xc6?'
p198
tp199
Rp200
aI0
aI0
ag189
(g192
S'\xec\xabC\xab\x12\x82\xbc?'
p201
tp202
Rp203
aI0
ag189
(g192
S'\xf5U\x7f\x03E\x9c\xc3?'
p204
tp205
Rp206
ag189
(g192
S'\x1e]Q\x1a\xdan\xc9?'
p207
tp208
Rp209
ag189
(g192
S'(\x18\xe5\xd5\xbcs\xc2?'
p210
tp211
Rp212
ag189
(g192
S'\x00\x00\x00\x00\x00\x00\x00\x00'
p213
tp214
Rp215
ag189
(g192
S'\x9a\x99\x99\x99\x99\x99\x99?'
p216
tp217
Rp218
ag189
(g192
S'\xc8\xeau\xc4[\x9a\xd5?'
p219
tp220
Rp221
ag189
(g192
S'\xc9\x0f\xb1\x9c\xdc\x1b\xc6?'
p222
tp223
Rp224
ag189
(g192
S'\xe1H\xff\xb4q\x1e\xd5?'
p225
tp226
Rp227
ag189
(g192
S'\x00\x00\x00\x00\x00\x00\x00\x00'
p228
tp229
Rp230
ag189
(g192
S'\xbaJ\x9e\x9d\x02\xaa\xd5?'
p231
tp232
Rp233
ag189
(g192
S'\xa2\xed\x19\x89\xa0X\xc7?'
p234
tp235
Rp236
ag189
(g192
S'\x8e\xd3\xf9`x#\xdd?'
p237
tp238
Rp239
ag189
(g192
S'kO?\\[]\xb4?'
p240
tp241
Rp242
ag189
(g192
S'\x1fp\x7f\xa0\xeb\x97\xd0?'
p243
tp244
Rp245
ag189
(g192
S'\xb1\x03\xfe\xe3\xec;\xd8?'
p246
tp247
Rp248
ag189
(g192
S'\x19\x83\xa3D\x94i\xdd?'
p249
tp250
Rp251
ag189
(g192
S'\xb3\x06\xb4\xdd\xe1:\xc8?'
p252
tp253
Rp254
ag189
(g192
S'\x8d0\x15\x19\xd4\xda\xd7?'
p255
tp256
Rp257
ag189
(g192
S'\x0fc\xffQ\x18\x1a\xa2?'
p258
tp259
Rp260
ag189
(g192
S'\x03\xb7\xd5\xa3\x7f\xcd\xc6?'
p261
tp262
Rp263
ag189
(g192
S'7\xad9q\xb2\xa6\xab?'
p264
tp265
Rp266
ag189
(g192
S'kf\x81\x1co\xd6\xcf?'
p267
tp268
Rp269
ag189
(g192
S'\x8ba\xda5O\xaf\xc2?'
p270
tp271
Rp272
ag189
(g192
S';\xa8Gf\xb6\xd4\xb8?'
p273
tp274
Rp275
aI0
ag189
(g192
S'\xb6\xaba(\x01\x8e\xc6?'
p276
tp277
Rp278
ag189
(g192
S'\x99\x1e\x01\xe8\x04>\xd0?'
p279
tp280
Rp281
ag189
(g192
S'\xe1H\xff\xb4q\x1e\xc5?'
p282
tp283
Rp284
ag189
(g192
S'\xd2\xa2U\xe8\xe9\xd0\xb4?'
p285
tp286
Rp287
ag189
(g192
S'\x8a\xbdQ\xadJj\xc5?'
p288
tp289
Rp290
ag189
(g192
S'\xb5YB\xa4\x0cP\xc6?'
p291
tp292
Rp293
ag189
(g192
S"'f]\xac\xb8\x0f\xdb?"
p294
tp295
Rp296
ag189
(g192
S'\xd8Z\n\x07\x91\x12\xbc?'
p297
tp298
Rp299
ag189
(g192
S'\\s,\xbf\t>\xd3?'
p300
tp301
Rp302
ag189
(g192
S'f\xea\x8fb\xf7\xcb\xdd?'
p303
tp304
Rp305
ag189
(g192
S'\x00\x00\x00\x00\x00\x00\x00\x00'
p306
tp307
Rp308
ag189
(g192
S'\xc3m\xfcj\x13\x00\xd2?'
p309
tp310
Rp311
ag189
(g192
S'/\xb8\xe6\x08r\x8f\xbd?'
p312
tp313
Rp314
ag189
(g192
S'8+\xdfF\xf3T\xd2?'
p315
tp316
Rp317
ag189
(g192
S'\x0bc\xffQ\x18\x1a\xb2?'
p318
tp319
Rp320
ag189
(g192
S'm@\xd9me\xc1\xc9?'
p321
tp322
Rp323
ag189
(g192
S'&\x8f\xb4\xb1\x0es\xc2?'
p324
tp325
Rp326
ag189
(g192
S'\xbb\xf2\x98~\r\xc2\xbf?'
p327
tp328
Rp329
ag189
(g192
S'\x82\xb1\xc6h\xc9$\xc7?'
p330
tp331
Rp332
ag189
(g192
S'\xb5\xa4K\x1e{v\xcb?'
p333
tp334
Rp335
aI0
ag189
(g192
S'\xe5\x05\xd6\x11\xd3s\xc5?'
p336
tp337
Rp338
ag189
(g192
S'.(\xbfp\xe1\xe3\xc8?'
p339
tp340
Rp341
ag189
(g192
S'\x00\x00\x00\x00\x00\x00\x00\x00'
p342
tp343
Rp344
ag189
(g192
S'\x0bc\xffQ\x18\x1a\xc2?'
p345
tp346
Rp347
ag189
(g192
S'\x1c3\x90E\xa7y\xd2?'
p348
tp349
Rp350
ag189
(g192
S'\xcd;\x7ff\x9e\xa0\xe6?'
p351
tp352
Rp353
ag189
(g192
S'%r7\xd2\xa3\\\xb7?'
p354
tp355
Rp356
ag189
(g192
S'\xe8\xcd\x92g\x81\x14\xd2?'
p357
tp358
Rp359
ag189
(g192
S'\x00\x00\x00\x00\x00\x00\x00\x00'
p360
tp361
Rp362
ag189
(g192
S'7\xb5]\xe6\x99\xb7\xc9?'
p363
tp364
Rp365
ag189
(g192
S'\x01e_7+\xe0\xe1?'
p366
tp367
Rp368
ag189
(g192
S'\x0c9\xed\xbd\xea@\xcc?'
p369
tp370
Rp371
ag189
(g192
S'g\xa2\xea\xca\x8d/\xd1?'
p372
tp373
Rp374
ag189
(g192
S'0\xee\xfe\xe7BZ\xc7?'
p375
tp376
Rp377
ag189
(g192
S'\x9a\x83\xa4\x9dv"\xc8?'
p378
tp379
Rp380
ag189
(g192
S'UUUUUU\xb5?'
p381
tp382
Rp383
ag189
(g192
S'\x0bc\xffQ\x18\x1a\xc2?'
p384
tp385
Rp386
aI0
ag189
(g192
S'\xd7\xab`\x1a\xe6<\xca?'
p387
tp388
Rp389
ag189
(g192
S'7\xa6\xc9H\x97\xc6\xc1?'
p390
tp391
Rp392
aI0
aI0
ag189
(g192
S'\xa28CB\xcd\x9f\xd1?'
p393
tp394
Rp395
ag189
(g192
S'|\x99\xc7\xbbY\xa0\xcb?'
p396
tp397
Rp398
ag189
(g192
S'H\xfa\xfe\xdd}+n?'
p399
tp400
Rp401
ag189
(g192
S'\x00\x00\x00\x00\x00\x00\x00\x00'
p402
tp403
Rp404
ag189
(g192
S'\xa31\xc3\xe5y\x1d\xd0?'
p405
tp406
Rp407
ag189
(g192
S'<\xa9\xda\\o\xfa\xc7?'
p408
tp409
Rp410
ag189
(g192
S'\x15\xa1@\xd6\xc9U\xc5?'
p411
tp412
Rp413
ag189
(g192
S'\xe7\x9fF\x95|\x8a\xd8?'
p414
tp415
Rp416
ag189
(g192
S')r\xc3\xa4\x94[\xd0?'
p417
tp418
Rp419
ag189
(g192
S'\xfd1\x9f\xeb?\xc2\xd7?'
p420
tp421
Rp422
ag189
(g192
S'\xd0M\xcas\x8bW\xd4?'
p423
tp424
Rp425
aI0
ag189
(g192
S'\xf1\x00?\x85gj\xcd?'
p426
tp427
Rp428
ag189
(g192
S'Q\xed~\x8f\xaa\xad\xcf?'
p429
tp430
Rp431
ag189
(g192
S'\xdb\xed\xbf\xc5%\x9f\xcc?'
p432
tp433
Rp434
ag189
(g192
S'\x8d\xf7\xe2B1\xac\xd6?'
p435
tp436
Rp437
ag189
(g192
S'\x12\x11\x11\x11\x11\x11\xa1?'
p438
tp439
Rp440
ag189
(g192
S'n\x98\xbf\rV\xce\xd0?'
p441
tp442
Rp443
ag189
(g192
S"s'n\xa9\xbb*\xa0?"
p444
tp445
Rp446
ag189
(g192
S'm\xc1\x0c\x8eF\xee\xc5?'
p447
tp448
Rp449
ag189
(g192
S'\x977\xdd2\xde3\xd6?'
p450
tp451
Rp452
ag189
(g192
S'(\x9a\x12\xe8\xe5\xc3\xd1?'
p453
tp454
Rp455
ag189
(g192
S'\x1d\x8fx\xf7p\x7f\xc2?'
p456
tp457
Rp458
ag189
(g192
S'\x0bc\xffQ\x18\x1a\xc2?'
p459
tp460
Rp461
ag189
(g192
S'\x1a\x1b?"\x0ef\xca?'
p462
tp463
Rp464
ag189
(g192
S'Cb\xab:\xbf\x88\xd0?'
p465
tp466
Rp467
ag189
(g192
S'\xb8\xf8\x1dNk2\xd7?'
p468
tp469
Rp470
ag189
(g192
S'E\xd9-]\x04\x92\xc4?'
p471
tp472
Rp473
aI0
ag189
(g192
S'\x00\x00\x00\x00\x00\x00\x00\x00'
p474
tp475
Rp476
ag189
(g192
S'\x15@5n\xf7\x9c\xcc?'
p477
tp478
Rp479
ag189
(g192
S'efffff\xb6?'
p480
tp481
Rp482
ag189
(g192
S'\xdf0w@\x14\xc9\xc5?'
p483
tp484
Rp485
ag189
(g192
S'\x82\xcd?nQ\xec\xc3?'
p486
tp487
Rp488
ag189
(g192
S'bq\x8dMOx\xc4?'
p489
tp490
Rp491
ag189
(g192
S'@\x9ax\x0e\x8b\x0b\xdf?'
p492
tp493
Rp494
ag189
(g192
S'\x9e\x8c\xaeWq\x9a\xb9?'
p495
tp496
Rp497
ag189
(g192
S'B\x1d\x1dl>\xcb\xd4?'
p498
tp499
Rp500
ag189
(g192
S'\nc\xffQ\x18\x1a\xc2?'
p501
tp502
Rp503
ag189
(g192
S'\xe2\xd0\xda\xde\x8fW\xb5?'
p504
tp505
Rp506
ag189
(g192
S'~@6\xc8b\xc6\xd7?'
p507
tp508
Rp509
ag189
(g192
S'\xa4`S\xd8M\xfe\xd6?'
p510
tp511
Rp512
ag189
(g192
S'\xf8\x03h\xadX\xef\xb4?'
p513
tp514
Rp515
ag189
(g192
S'\x9di\xdd\x08\x14\x82\xd2?'
p516
tp517
Rp518
ag189
(g192
S'z(\x95\xfa\x87\x0c\xc6?'
p519
tp520
Rp521
ag189
(g192
S'\xbf\xd6\x82\xfe\x11v\xd5?'
p522
tp523
Rp524
ag189
(g192
S'\x0bc\xffQ\x18\x1a\xd2?'
p525
tp526
Rp527
ag189
(g192
S'|\x869\x1b\xect\xd2?'
p528
tp529
Rp530
ag189
(g192
S'\x00\x00\x00\x00\x00\x00\x00\x00'
p531
tp532
Rp533
ag189
(g192
S'\x0c\xad\xear\xdc\x97\xd5?'
p534
tp535
Rp536
aF0.43636363636363645
aF0.25
aF0.2
aF0.0
aF0.2904452690166976
aF0.7
aF0.5555555555555555
aF0.5380952380952381
aF0.55
aF0.4
aF0.2
aF0.5851322751322752
aF0.5499999999999999
aF0.32222222222222224
aF0.0
aF0.6875
aF0.30206980519480525
aF0.5185064935064936
aF0.4625
aF0.64
aF0.6649350649350649
aF0.5861111111111111
aF0.505
aF0.29
aF0.6666666666666666
aF0.27499999999999997
aF0.265
aF0.4921875
aF0.48856060606060614
aF0.4193181818181818
aF0.5
aF0.5259451659451659
aF0.51739417989418
aF0.65
aF0.41755952380952377
aF0.4441326530612244
aF0.4217908902691513
aF0.7055555555555556
aF0.4486772486772487
aF0.681485615079365
aF0.6044444444444445
aF0.0
aF0.5305555555555554
aF0.1
aF0.4398565323565324
aF0.375
aF0.4462962962962964
aF0.32337662337662343
aF0.40125
aF0.39999999999999997
aF0.47550730519480516
aF0.0
aF0.3299242424242424
aF0.43333333333333335
aF0.0
aF0.8
aF0.78125
aF0.6944444444444444
aF0.4536931818181818
aF0.6799999999999999
aF0.0
aF0.8017361111111112
aF0.6481481481481483
aF0.5875
aF0.4581065759637188
aF0.45625000000000004
aF0.23392857142857143
aF0.33125
aF0.1
aF0.5416666666666666
aF0.48
aF0.5666666666666668
aF0.6916666666666667
aF0.0
aF0.5875
aF0.4091666666666667
aF0.45500000000000007
aF0.1
aF0.4611111111111111
aF0.5148148148148148
aF0.6204545454545455
aF0.6910714285714287
aF0.5625
aF0.5875
aF0.3494897959183673
aF0.5104166666666666
aF0.615
aF0.45
aF0.39999999999999997
aF0.6
aF0.46699999999999997
aF0.5243253968253968
aF0.26571428571428574
aF0.5015151515151516
aF0.32575757575757575
aF0.5581679894179895
aF0.3678571428571429
aF0.4
aF0.5416666666666666
aF0.5482112794612795
aF0.5381987577639752
aF0.5454545454545454
aF0.0
aF0.0
aF0.3534863945578231
aF0.3875
aF0.3475155279503106
aF0.5423076923076924
aF0.3872698412698414
aF0.8030303030303031
aF0.34833333333333333
aF0.5986111111111111
aF0.2916666666666667
aF0.4587301587301587
aF0.6875
aF0.4
aF0.19
aF0.6443181818181818
aF0.4725
aF0.3297619047619048
aF0.4625
aF0.6113095238095237
aF0.5
aF0.5153409090909092
ag189
(g192
S'\x94}\x9c\x0f\xaau\xd5?'
p537
tp538
Rp539
ag189
(g192
S'\xcd;\x7ff\x9e\xa0\xc6?'
p540
tp541
Rp542
aI0
aI0
ag189
(g192
S'\x0c\x16+B\xc6\xe4\xc6?'
p543
tp544
Rp545
aI0
ag189
(g192
S'\xff%\xff8>$\xd9?'
p546
tp547
Rp548
ag189
(g192
S'\x14\x88\xd6\xed\x0e*\xd3?'
p549
tp550
Rp551
ag189
(g192
S'&\x82\x14\xbc\xc0\x19\xb5?'
p552
tp553
Rp554
ag189
(g192
S'\x0bc\xffQ\x18\x1a\xd2?'
p555
tp556
Rp557
ag189
(g192
S'\x9a\x99\x99\x99\x99\x99\xc9?'
p558
tp559
Rp560
ag189
(g192
S']!\x84{t\x8e\xda?'
p561
tp562
Rp563
ag189
(g192
S'\x85\xe1\x85\x93l\xf2\xd2?'
p564
tp565
Rp566
ag189
(g192
S'\xe2H\xff\xb4q\x1e\xc5?'
p567
tp568
Rp569
ag189
(g192
S'\x00\x00\x00\x00\x00\x00\x00\x00'
p570
tp571
Rp572
ag189
(g192
S'\\\xcfV\xcc\x073\xde?'
p573
tp574
Rp575
ag189
(g192
S'5\xecY\xa0\xa3\xd6\xcc?'
p576
tp577
Rp578
ag189
(g192
S"\xf1\x8eA'x\xfd\xd5?"
p579
tp580
Rp581
ag189
(g192
S'\x84J\xcf\x1e,\xee\xd4?'
p582
tp583
Rp584
ag189
(g192
S'Q\xed~\x8f\xaa\xad\xcf?'
p585
tp586
Rp587
ag189
(g192
S'\x97\x8c\xc4\x9a{~\xd6?'
p588
tp589
Rp590
ag189
(g192
S'"\x19\xa7\xcd\xda\xf3\xbf?'
p591
tp592
Rp593
ag189
(g192
S'\x96[\xe69\xf9\x8d\xd2?'
p594
tp595
Rp596
ag189
(g192
S'\x7f%\x07DX\x14\xd2?'
p597
tp598
Rp599
ag189
(g192
S'\xcd;\x7ff\x9e\xa0\xc6?'
p600
tp601
Rp602
ag189
(g192
S'\x9e\xf3\x9b0\x82\x14\xcf?'
p603
tp604
Rp605
ag189
(g192
S'\xf1\x94\x9e;\xb1\xb8\xcf?'
p606
tp607
Rp608
ag189
(g192
S'\x94E\xb2\x17G\x8c\xd2?'
p609
tp610
Rp611
ag189
(g192
S'\x92\xe5:\xd6f\xea\xd2?'
p612
tp613
Rp614
ag189
(g192
S'\x9c\xe7\xa5b4\n\xd4?'
p615
tp616
Rp617
aI0
ag189
(g192
S'I\xf8\x02qN\x0f\xce?'
p618
tp619
Rp620
ag189
(g192
S'\xbckSl-\x98\xd4?'
p621
tp622
Rp623
ag189
(g192
S'g\xfa\xfe\xdd}+\xce?'
p624
tp625
Rp626
ag189
(g192
S'\xefM#\xdaV\xc3\xd1?'
p627
tp628
Rp629
ag189
(g192
S'w\x94g\xabe\xa2\xd2?'
p630
tp631
Rp632
ag189
(g192
S'8\xfc\x98\xae\x80\xc5\xce?'
p633
tp634
Rp635
ag189
(g192
S'Zv\xd6V\x8f\x10\xdc?'
p636
tp637
Rp638
ag189
(g192
S'\x06\xadd\xec\xe2]\xd3?'
p639
tp640
Rp641
ag189
(g192
S'\x9c\x96\xb3e\xa7v\xd6?'
p642
tp643
Rp644
ag189
(g192
S'Q\x0e\xf7\xa3\x12\xf4\xdc?'
p645
tp646
Rp647
ag189
(g192
S'\x00\x00\x00\x00\x00\x00\x00\x00'
p648
tp649
Rp650
ag189
(g192
S'\xf0{\xb2c\xc5\xfe\xd3?'
p651
tp652
Rp653
ag189
(g192
S'/\xb8\xe6\x08r\x8f\xad?'
p654
tp655
Rp656
ag189
(g192
S'\nd\xec\xc2\xe9\xd9\xd1?'
p657
tp658
Rp659
ag189
(g192
S'\x0fc\xffQ\x18\x1a\xa2?'
p660
tp661
Rp662
ag189
(g192
S'xd\xf3\xe0?\x88\xd4?'
p663
tp664
Rp665
ag189
(g192
S'\xf1p\x0e\xa0\xf2\xec\xd0?'
p666
tp667
Rp668
ag189
(g192
S'%\xb6\xac\xc8\xd3\x81\xcf?'
p669
tp670
Rp671
ag189
(g192
S'ZQ\xf2Sg\xfe\xd2?'
p672
tp673
Rp674
ag189
(g192
S'\x11\xac\x01\xd3\x1d\x89\xcb?'
p675
tp676
Rp677
aI0
ag189
(g192
S'"\x0cET\x14v\xc7?'
p678
tp679
Rp680
ag189
(g192
S'\tc\xffQ\x18\x1a\xb2?'
p681
tp682
Rp683
ag189
(g192
S'\x00\x00\x00\x00\x00\x00\x00\x00'
p684
tp685
Rp686
ag189
(g192
S'\x0bc\xffQ\x18\x1a\xe2?'
p687
tp688
Rp689
ag189
(g192
S'3pcB\x01<\xe0?'
p690
tp691
Rp692
ag189
(g192
S'eg\x7f\xc1^\x99\xd1?'
p693
tp694
Rp695
ag189
(g192
S'\x01\x04\xe7r]e\xd1?'
p696
tp697
Rp698
ag189
(g192
S'\n>%J\x92\x13\xdd?'
p699
tp700
Rp701
ag189
(g192
S'\x00\x00\x00\x00\x00\x00\x00\x00'
p702
tp703
Rp704
ag189
(g192
S'\x11\xbeL\xdbi\xa6\xdc?'
p705
tp706
Rp707
ag189
(g192
S'\x11\\\xff\x05\x0e\xe8\xd2?'
p708
tp709
Rp710
ag189
(g192
S'\x8f\xdb/R\x16\xac\xd8?'
p711
tp712
Rp713
ag189
(g192
S'\xd6\xa8Q\xd4w\xcd\xda?'
p714
tp715
Rp716
ag189
(g192
S'\xb5\xba\xc5\xcf\xe5"\xd0?'
p717
tp718
Rp719
ag189
(g192
S'\xb1\xe8\x98\x03\xecQ\xce?'
p720
tp721
Rp722
ag189
(g192
S'!c\x92\xb3\xddK\xd7?'
p723
tp724
Rp725
ag189
(g192
S'\x0bc\xffQ\x18\x1a\xb2?'
p726
tp727
Rp728
aI0
ag189
(g192
S'\x0b\xa6G\xeb\xb2\x8f\xd6?'
p729
tp730
Rp731
ag189
(g192
S'\x1e\x9bq\xab\x8b5\xd5?'
p732
tp733
Rp734
aI0
aI0
ag189
(g192
S'\x9fy\xd7\x18\xa6\x0c\xd3?'
p735
tp736
Rp737
ag189
(g192
S'\x1a\x00\xdb\xc1uA\xd1?'
p738
tp739
Rp740
ag189
(g192
S'\xf9U\x7f\x03E\x9c\xa3?'
p741
tp742
Rp743
ag189
(g192
S'.\xb8\xe6\x08r\x8f\xad?'
p744
tp745
Rp746
ag189
(g192
S'\xaf\x00\xb5\xfd\xf0\xd5\xcb?'
p747
tp748
Rp749
ag189
(g192
S'\xc3\xe4\x98\x83\xe9\xfa\xbb?'
p750
tp751
Rp752
ag189
(g192
S'M\x99BH\xf3(\xd5?'
p753
tp754
Rp755
ag189
(g192
S'\xe6\xa7J{P\xc7\xd6?'
p756
tp757
Rp758
ag189
(g192
S'F#O3\xb2t\xd9?'
p759
tp760
Rp761
ag189
(g192
S';Y\x1f\xd7\xb9;\xd3?'
p762
tp763
Rp764
ag189
(g192
S'\x91\xdf\xe9")\xc6\xd2?'
p765
tp766
Rp767
aI0
ag189
(g192
S'\xac\x0e\xdf\xca\xeb\xd4\xdb?'
p768
tp769
Rp770
ag189
(g192
S'kO?\\[]\xd4?'
p771
tp772
Rp773
ag189
(g192
S'.8\xe3\xf2Y\x10\xd0?'
p774
tp775
Rp776
ag189
(g192
S'9Q\x15Z\xaa3\xd8?'
p777
tp778
Rp779
ag189
(g192
S'\xdaXJ\xa1\xe3t\xc9?'
p780
tp781
Rp782
ag189
(g192
S'\xa1Y0\x93\xd5\xd6\xd3?'
p783
tp784
Rp785
ag189
(g192
S'\xec\x06\xcboh\x0c\xbe?'
p786
tp787
Rp788
ag189
(g192
S'\xb4\xba\x069.\x9e\xd5?'
p789
tp790
Rp791
ag189
(g192
S'e\xf5\xa5_7\x15\xd9?'
p792
tp793
Rp794
ag189
(g192
S'5\xd2\x98lu\x1f\xcd?'
p795
tp796
Rp797
ag189
(g192
S'\xa2Y\xe3\x95N-\xd0?'
p798
tp799
Rp800
ag189
(g192
S'\x0bc\xffQ\x18\x1a\xd2?'
p801
tp802
Rp803
ag189
(g192
S'r+_DV\x83\xd8?'
p804
tp805
Rp806
ag189
(g192
S'\x02\xac6d\x1ed\xd8?'
p807
tp808
Rp809
ag189
(g192
S'\x19\xaaw#\xcdT\xd7?'
p810
tp811
Rp812
ag189
(g192
S'S\x9e\xd0o8\xaf\xd8?'
p813
tp814
Rp815
aI0
ag189
(g192
S'\x00\x00\x00\x00\x00\x00\x00\x00'
p816
tp817
Rp818
ag189
(g192
S'Pk\xfd\xed\xf3\\\xcd?'
p819
tp820
Rp821
ag189
(g192
S'\xcd\xcc\xcc\xcc\xcc\xcc\xc8?'
p822
tp823
Rp824
ag189
(g192
S'\xf0\x8a\xc6\x1fRJ\xcb?'
p825
tp826
Rp827
ag189
(g192
S'\\\xec{\x16Y\x12\xd2?'
p828
tp829
Rp830
ag189
(g192
S'!\x17\n\n\x12\x8f\xd0?'
p831
tp832
Rp833
ag189
(g192
S'\xfb{\xe7\xd0\xc2-\xdb?'
p834
tp835
Rp836
ag189
(g192
S'\x9d\x00\xe2S\xe4\xac\xcc?'
p837
tp838
Rp839
ag189
(g192
S'7\x8e\xe38\x8e\xe3\xc8?'
p840
tp841
Rp842
ag189
(g192
S'3T-\x04\x81,\xcb?'
p843
tp844
Rp845
ag189
(g192
S'\xe9P\xad\x1a\xac\x8a\xd1?'
p846
tp847
Rp848
ag189
(g192
S'\t\xe3\x0b\xe6\xc0\x10\xdd?'
p849
tp850
Rp851
ag189
(g192
S'wJ\xb0j\xc6\x96\xcf?'
p852
tp853
Rp854
ag189
(g192
S'6\x0e\x03\x16\x98-\xc5?'
p855
tp856
Rp857
ag189
(g192
S'6\xf5\xeda\xf3]\xd9?'
p858
tp859
Rp860
ag189
(g192
S'\x80\xa6\xad\xfa\x88\xf8\xc8?'
p861
tp862
Rp863
ag189
(g192
S'\xec\xd7\xfbi\x9dq\xd2?'
p864
tp865
Rp866
ag189
(g192
S'"\xf7^\n\t\x8c\xde?'
p867
tp868
Rp869
ag189
(g192
S'\xd6-\xdb\x89\x9d\xfc\xc9?'
p870
tp871
Rp872
ag189
(g192
S'\x1d3\x90E\xa7y\xd2?'
p873
tp874
Rp875
ag189
(g192
S'^x$\xe3\xbf\xd2\xd4?'
p876
tp877
Rp878
ag189
(g192
S'\x9a\x99\x99\x99\x99\x99\xd9?'
p879
tp880
Rp881
ag189
(g192
S'\x00\x00\x00\x00\x00\x00\xd0?'
p882
tp883
Rp884
aI0
aI0
ag189
(g192
S'P\x07uP\x07u\xd0?'
p885
tp886
Rp887
aI0
ag189
(g192
S'\xbb\xbb\xbb\xbb\xbb\xbb\xcb?'
p888
tp889
Rp890
ag189
(g192
S'\x9c\xc0\t\x9c\xc0\t\xdc?'
p891
tp892
Rp893
ag189
(g192
S'\x9a\x99\x99\x99\x99\x99\xd1?'
p894
tp895
Rp896
ag189
(g192
S'\x00\x00\x00\x00\x00\x00\x00\x00'
p897
tp898
Rp899
ag189
(g192
S'\x9a\x99\x99\x99\x99\x99\xa9?'
p900
tp901
Rp902
ag189
(g192
S'ffffff\xee?'
p903
tp904
Rp905
ag189
(g192
S'ffffff\xe2?'
p906
tp907
Rp908
ag189
(g192
S'\xde\xdd\xdd\xdd\xdd\xdd\xdd?'
p909
tp910
Rp911
ag189
(g192
S'\x00\x00\x00\x00\x00\x00\x00\x00'
p912
tp913
Rp914
ag189
(g192
S'\x00\x00\x00\x00\x00\x00\xe8?'
p915
tp916
Rp917
ag189
(g192
S'333333\xe3?'
p918
tp919
Rp920
ag189
(g192
S'\x00\x00\x00\x00\x00\x00\xf4?'
p921
tp922
Rp923
ag189
(g192
S'\xcc\xcc\xcc\xcc\xcc\xcc\xbc?'
p924
tp925
Rp926
ag189
(g192
S'wwwwww\xd7?'
p927
tp928
Rp929
ag189
(g192
S'\x00\x00\x00\x00\x00\x00\xf0?'
p930
tp931
Rp932
ag189
(g192
S'VUUUUU\xed?'
p933
tp934
Rp935
ag189
(g192
S'ffffff\xd6?'
p936
tp937
Rp938
ag189
(g192
S'\x00\x00\x00\x00\x00\x00\xf0?'
p939
tp940
Rp941
ag189
(g192
S'\xa0\x99\x99\x99\x99\x99\xa9?'
p942
tp943
Rp944
ag189
(g192
S'\x99\x99\x99\x99\x99\x99\xd9?'
p945
tp946
Rp947
ag189
(g192
S'333333\xc3?'
p948
tp949
Rp950
ag189
(g192
S'UUUUUU\xe5?'
p951
tp952
Rp953
ag189
(g192
S'\xde\xdd\xdd\xdd\xdd\xdd\xe5?'
p954
tp955
Rp956
ag189
(g192
S'I\xbd\x8e\xd4\xebH\xcd?'
p957
tp958
Rp959
aI0
ag189
(g192
S'$\x80^w8}\xdc?'
p960
tp961
Rp962
ag189
(g192
S'\x9a\x99\x99\x99\x99\x99\xe9?'
p963
tp964
Rp965
ag189
(g192
S'\xdd\xdd\xdd\xdd\xdd\xdd\xcd?'
p966
tp967
Rp968
ag189
(g192
S'\xf8\x8a\xaf\xf8\x8a\xaf\xc8?'
p969
tp970
Rp971
ag189
(g192
S'\x00\x00\x00\x00\x00\x00\xe0?'
p972
tp973
Rp974
ag189
(g192
S'\xcd\xcc\xcc\xcc\xcc\xcc\xec?'
p975
tp976
Rp977
ag189
(g192
S'\xcd\xcc\xcc\xcc\xcc\xcc\xec?'
p978
tp979
Rp980
ag189
(g192
S'\xb2\x1f\xfb\xb1\x1f\xfb\xd1?'
p981
tp982
Rp983
ag189
(g192
S'333333\xeb?'
p984
tp985
Rp986
ag189
(g192
S'UUUUUU\xed?'
p987
tp988
Rp989
ag189
(g192
S'\x00\x00\x00\x00\x00\x00\x00\x00'
p990
tp991
Rp992
ag189
(g192
S'333333\xeb?'
p993
tp994
Rp995
ag189
(g192
S'\x9a\x99\x99\x99\x99\x99\xc9?'
p996
tp997
Rp998
ag189
(g192
S'\xa1\xd3\x06:m\xa0\xeb?'
p999
tp1000
Rp1001
ag189
(g192
S'\x9a\x99\x99\x99\x99\x99\xb9?'
p1002
tp1003
Rp1004
ag189
(g192
S'\xcd\xcc\xcc\xcc\xcc\xcc\xe4?'
p1005
tp1006
Rp1007
ag189
(g192
S'\xb7m\xdb\xb6m\xdb\xd6?'
p1008
tp1009
Rp1010
ag189
(g192
S'\xa4p=\n\xd7\xa3\xd0?'
p1011
tp1012
Rp1013
ag189
(g192
S'\x9a\x99\x99\x99\x99\x99\xe9?'
p1014
tp1015
Rp1016
ag189
(g192
S'UUUUUU\xe5?'
p1017
tp1018
Rp1019
aI0
ag189
(g192
S'\x9a\x99\x99\x99\x99\x99\xe1?'
p1020
tp1021
Rp1022
ag189
(g192
S'\x9a\x99\x99\x99\x99\x99\xd1?'
p1023
tp1024
Rp1025
ag189
(g192
S'\x00\x00\x00\x00\x00\x00\x00\x00'
p1026
tp1027
Rp1028
ag189
(g192
S'\x9a\x99\x99\x99\x99\x99\xc9?'
p1029
tp1030
Rp1031
ag189
(g192
S'\x00\x00\x00\x00\x00\x00\xe0?'
p1032
tp1033
Rp1034
ag189
(g192
S'\x00\x00\x00\x00\x00\x00\xf0?'
p1035
tp1036
Rp1037
ag189
(g192
S'\xcc\xcc\xcc\xcc\xcc\xcc\xd4?'
p1038
tp1039
Rp1040
ag189
(g192
S'"""""\xa2\xe4?'
p1041
tp1042
Rp1043
ag189
(g192
S'\x00\x00\x00\x00\x00\x00\x00\x00'
p1044
tp1045
Rp1046
ag189
(g192
S'\x89\x88\x88\x88\x88\x88\xe0?'
p1047
tp1048
Rp1049
ag189
(g192
S'H\xe1z\x14\xaeG\xe9?'
p1050
tp1051
Rp1052
ag189
(g192
S'333333\xe5?'
p1053
tp1054
Rp1055
ag189
(g192
S'\xd8\x82-\xd8\x82-\xe8?'
p1056
tp1057
Rp1058
ag189
(g192
S'\xaa\xaa\xaa\xaa\xaa\xaa\xe2?'
p1059
tp1060
Rp1061
ag189
(g192
S'\x00\x00\x00\x00\x00\x00\xe5?'
p1062
tp1063
Rp1064
ag189
(g192
S'\x00\x00\x00\x00\x00\x00\xd0?'
p1065
tp1066
Rp1067
ag189
(g192
S'\x9a\x99\x99\x99\x99\x99\xc9?'
p1068
tp1069
Rp1070
aI0
ag189
(g192
S'\x9a\x99\x99\x99\x99\x99\xdd?'
p1071
tp1072
Rp1073
ag189
(g192
S'\x9b\x99\x99\x99\x99\x99\xd9?'
p1074
tp1075
Rp1076
aI0
aI0
ag189
(g192
S'\x9a\x99\x99\x99\x99\x99\xe1?'
p1077
tp1078
Rp1079
ag189
(g192
S'|\xf3j\xe2Y\xd1\xe0?'
p1080
tp1081
Rp1082
ag189
(g192
S'@UUUUUu?'
p1083
tp1084
Rp1085
ag189
(g192
S'\x00\x00\x00\x00\x00\x00\x00\x00'
p1086
tp1087
Rp1088
ag189
(g192
S'\x99\x99\x99\x99\x99\x99\xe1?'
p1089
tp1090
Rp1091
ag189
(g192
S'xwwwww\xd7?'
p1092
tp1093
Rp1094
ag189
(g192
S'\x9a\x99\x99\x99\x99\x99\xd9?'
p1095
tp1096
Rp1097
ag189
(g192
S'\xee\xee\xee\xee\xeen\xeb?'
p1098
tp1099
Rp1100
ag189
(g192
S'""""""\xd7?'
p1101
tp1102
Rp1103
ag189
(g192
S'\xcd\xcc\xcc\xcc\xcc\xcc\xe0?'
p1104
tp1105
Rp1106
ag189
(g192
S'\x9a\x99\x99\x99\x99\x99\xe9?'
p1107
tp1108
Rp1109
aI0
ag189
(g192
S'\xcd\xcc\xcc\xcc\xcc\xcc\xd4?'
p1110
tp1111
Rp1112
ag189
(g192
S'ffffff\xd6?'
p1113
tp1114
Rp1115
ag189
(g192
S'\x00\x00\x00\x00\x00\x00\xe0?'
p1116
tp1117
Rp1118
ag189
(g192
S'\x00\x00\x00\x00\x00\x00\xf0?'
p1119
tp1120
Rp1121
ag189
(g192
S'\x9a\x99\x99\x99\x99\x99\xb9?'
p1122
tp1123
Rp1124
ag189
(g192
S'\xbb\xbb\xbb\xbb\xbb\xbb\xeb?'
p1125
tp1126
Rp1127
ag189
(g192
S'\x9e%\xec\xe6\xb7\x10\xb0?'
p1128
tp1129
Rp1130
ag189
(g192
S'\x9a\x99\x99\x99\x99\x99\xd9?'
p1131
tp1132
Rp1133
ag189
(g192
S'\xfb\x86\xb5oX\xfb\xee?'
p1134
tp1135
Rp1136
ag189
(g192
S'\x88\x88\x88\x88\x88\x88\xe8?'
p1137
tp1138
Rp1139
ag189
(g192
S'\x92$I\x92$I\xd2?'
p1140
tp1141
Rp1142
ag189
(g192
S'\x9a\x99\x99\x99\x99\x99\xc9?'
p1143
tp1144
Rp1145
ag189
(g192
S'\xab\xaa\xaa\xaa\xaa\xaa\xd2?'
p1146
tp1147
Rp1148
ag189
(g192
S'\xcd\xcc\xcc\xcc\xcc\xcc\xf0?'
p1149
tp1150
Rp1151
ag189
(g192
S'UUUUUU\xf5?'
p1152
tp1153
Rp1154
ag189
(g192
S'\x17]t\xd1E\x17\xcd?'
p1155
tp1156
Rp1157
aI0
ag189
(g192
S'\x00\x00\x00\x00\x00\x00\x00\x00'
p1158
tp1159
Rp1160
ag189
(g192
S'\x9a\x99\x99\x99\x99\x99\xe5?'
p1161
tp1162
Rp1163
ag189
(g192
S'ffffff\xc6?'
p1164
tp1165
Rp1166
ag189
(g192
S'\xcc\xcc\xcc\xcc\xcc\xcc\xdc?'
p1167
tp1168
Rp1169
ag189
(g192
S'\x9a\x99\x99\x99\x99\x99\xd9?'
p1170
tp1171
Rp1172
ag189
(g192
S'\xcc\xcc\xcc\xcc\xcc\xcc\xdc?'
p1173
tp1174
Rp1175
ag189
(g192
S'\x00\x00\x00\x00\x00\x00\xf8?'
p1176
tp1177
Rp1178
ag189
(g192
S'\x9a\x99\x99\x99\x99\x99\xc9?'
p1179
tp1180
Rp1181
ag189
(g192
S'ffffff\xe6?'
p1182
tp1183
Rp1184
ag189
(g192
S'333333\xd3?'
p1185
tp1186
Rp1187
ag189
(g192
S'xwwwww\xc7?'
p1188
tp1189
Rp1190
ag189
(g192
S'\xcd\xcc\xcc\xcc\xcc\xcc\xf0?'
p1191
tp1192
Rp1193
ag189
(g192
S'DDDDDD\xf2?'
p1194
tp1195
Rp1196
ag189
(g192
S'\x9a\x99\x99\x99\x99\x99\xc9?'
p1197
tp1198
Rp1199
ag189
(g192
S'333333\xe7?'
p1200
tp1201
Rp1202
ag189
(g192
S'\x9a\x99\x99\x99\x99\x99\xd9?'
p1203
tp1204
Rp1205
ag189
(g192
S'ffffff\xe6?'
p1206
tp1207
Rp1208
ag189
(g192
S'\x9a\x99\x99\x99\x99\x99\xd9?'
p1209
tp1210
Rp1211
ag189
(g192
S'\x9a\x99\x99\x99\x99\x99\xe3?'
p1212
tp1213
Rp1214
ag189
(g192
S'\x00\x00\x00\x00\x00\x00\x00\x00'
p1215
tp1216
Rp1217
ag189
(g192
S'\x9a\x99\x99\x99\x99\x99\xf1?'
p1218
tp1219
Rp1220
ag189
(g192
S'\xcd\xcc\xcc\xcc\xcc\xcc\xec?'
p1221
tp1222
Rp1223
ag189
(g192
S'\x00\x00\x00\x00\x00\x00\xd0?'
p1224
tp1225
Rp1226
aI0
aI0
ag189
(g192
S'\x00\x00\x00\x00\x00\x00\xe0?'
p1227
tp1228
Rp1229
aI0
ag189
(g192
S'q\x1c\xc7q\x1c\xc7\xe1?'
p1230
tp1231
Rp1232
ag189
(g192
S'ffffff\xe6?'
p1233
tp1234
Rp1235
ag189
(g192
S'\xe0z\x14\xaeG\xe1\xc2?'
p1236
tp1237
Rp1238
ag189
(g192
S'\x9a\x99\x99\x99\x99\x99\xd9?'
p1239
tp1240
Rp1241
ag189
(g192
S'\x9a\x99\x99\x99\x99\x99\xd9?'
p1242
tp1243
Rp1244
ag189
(g192
S'\xcd\xcc\xcc\xcc\xcc\xcc\xec?'
p1245
tp1246
Rp1247
ag189
(g192
S'333333\xeb?'
p1248
tp1249
Rp1250
ag189
(g192
S'\xdf\xdd\xdd\xdd\xdd\xdd\xcd?'
p1251
tp1252
Rp1253
ag189
(g192
S'\x00\x00\x00\x00\x00\x00\x00\x00'
p1254
tp1255
Rp1256
ag189
(g192
S'\x00\x00\x00\x00\x00\x00\xf0?'
p1257
tp1258
Rp1259
ag189
(g192
S'333333\xe3?'
p1260
tp1261
Rp1262
ag189
(g192
S'\x00\x00\x00\x00\x00\x00\xf0?'
p1263
tp1264
Rp1265
ag189
(g192
S'\x9a\x99\x99\x99\x99\x99\xdd?'
p1266
tp1267
Rp1268
ag189
(g192
S'ffffff\xd6?'
p1269
tp1270
Rp1271
ag189
(g192
S'\x00\x00\x00\x00\x00\x00\xf0?'
p1272
tp1273
Rp1274
ag189
(g192
S'\xee\xee\xee\xee\xee\xee\xce?'
p1275
tp1276
Rp1277
ag189
(g192
S'UUUUUU\xe1?'
p1278
tp1279
Rp1280
ag189
(g192
S'\x00\x00\x00\x00\x00\x00\xe8?'
p1281
tp1282
Rp1283
ag189
(g192
S'\x00\x00\x00\x00\x00\x00\xd0?'
p1284
tp1285
Rp1286
ag189
(g192
S'\x9a\x99\x99\x99\x99\x99\xe1?'
p1287
tp1288
Rp1289
ag189
(g192
S'\x00\x00\x00\x00\x00\x00\xe4?'
p1290
tp1291
Rp1292
ag189
(g192
S'\x00\x00\x00\x00\x00\x00\xe8?'
p1293
tp1294
Rp1295
ag189
(g192
S'\x00\x00\x00\x00\x00\x00\xf0?'
p1296
tp1297
Rp1298
ag189
(g192
S'\xd9d\x93M6\xd9\xe4?'
p1299
tp1300
Rp1301
aI0
ag189
(g192
S'\xf6\xc1t\xa1l\x1f\xe4?'
p1302
tp1303
Rp1304
ag189
(g192
S'\x00\x00\x00\x00\x00\x00\xf0?'
p1305
tp1306
Rp1307
ag189
(g192
S'VUUUUU\xd5?'
p1308
tp1309
Rp1310
ag189
(g192
S'UUUUUU\xe5?'
p1311
tp1312
Rp1313
ag189
(g192
S'\x00\x00\x00\x00\x00\x00\xf0?'
p1314
tp1315
Rp1316
ag189
(g192
S'ffffff\xe6?'
p1317
tp1318
Rp1319
ag189
(g192
S'\xcd\xcc\xcc\xcc\xcc\xcc\xec?'
p1320
tp1321
Rp1322
ag189
(g192
S'""""""\xe6?'
p1323
tp1324
Rp1325
ag189
(g192
S'\x1c\xc7q\x1c\xc7q\xec?'
p1326
tp1327
Rp1328
ag189
(g192
S'\xcd\xcc\xcc\xcc\xcc\xcc\xec?'
p1329
tp1330
Rp1331
ag189
(g192
S'\x00\x00\x00\x00\x00\x00\x00\x00'
p1332
tp1333
Rp1334
ag189
(g192
S'\x00\x00\x00\x00\x00\x00\xe8?'
p1335
tp1336
Rp1337
ag189
(g192
S'\x9a\x99\x99\x99\x99\x99\xb9?'
p1338
tp1339
Rp1340
ag189
(g192
S'\x81N\x1b\xe8\xb4\x81\xee?'
p1341
tp1342
Rp1343
ag189
(g192
S'\xa0\x99\x99\x99\x99\x99\xa9?'
p1344
tp1345
Rp1346
ag189
(g192
S'\x00\x00\x00\x00\x00\x00\xf0?'
p1347
tp1348
Rp1349
ag189
(g192
S'\x92$I\x92$I\xe2?'
p1350
tp1351
Rp1352
ag189
(g192
S'\x9a\x99\x99\x99\x99\x99\xe1?'
p1353
tp1354
Rp1355
ag189
(g192
S'\x00\x00\x00\x00\x00\x00\xf0?'
p1356
tp1357
Rp1358
ag189
(g192
S'n\xdb\xb6m\xdb\xb6\xe5?'
p1359
tp1360
Rp1361
aI0
ag189
(g192
S'\xdb\xb6m\xdb\xb6m\xe3?'
p1362
tp1363
Rp1364
ag189
(g192
S'\x98\x99\x99\x99\x99\x99\xb9?'
p1365
tp1366
Rp1367
ag189
(g192
S'\x00\x00\x00\x00\x00\x00\x00\x00'
p1368
tp1369
Rp1370
ag189
(g192
S'\x9a\x99\x99\x99\x99\x99\xe9?'
p1371
tp1372
Rp1373
ag189
(g192
S'\x00\x00\x00\x00\x00\x00\xf0?'
p1374
tp1375
Rp1376
ag189
(g192
S'8\x8e\xe38\x8e\xe3\xd8?'
p1377
tp1378
Rp1379
ag189
(g192
S'F\x17]t\xd1E\xe7?'
p1380
tp1381
Rp1382
ag189
(g192
S'\xcd\xcc\xcc\xcc\xcc\xcc\xec?'
p1383
tp1384
Rp1385
ag189
(g192
S'\x00\x00\x00\x00\x00\x00\x00\x00'
p1386
tp1387
Rp1388
ag189
(g192
S'\x00\x00\x00\x00\x00\x00\xf0?'
p1389
tp1390
Rp1391
ag189
(g192
S'iE#\x01\xdf\xbc\xda?'
p1392
tp1393
Rp1394
ag189
(g192
S'\x00\x00\x00\x00\x00\x00\xf0?'
p1395
tp1396
Rp1397
ag189
(g192
S'\x00\x00\x00\x00\x00\x00\xf0?'
p1398
tp1399
Rp1400
ag189
(g192
S'UUUUUU\xe5?'
p1401
tp1402
Rp1403
ag189
(g192
S'\x9a\x99\x99\x99\x99\x99\xe1?'
p1404
tp1405
Rp1406
ag189
(g192
S'\x00\x00\x00\x00\x00\x00\xf0?'
p1407
tp1408
Rp1409
ag189
(g192
S'\x9a\x99\x99\x99\x99\x99\xb9?'
p1410
tp1411
Rp1412
aI0
ag189
(g192
S'\x9a\x99\x99\x99\x99\x99\xe9?'
p1413
tp1414
Rp1415
ag189
(g192
S'\xcd\xcc\xcc\xcc\xcc\xcc\xec?'
p1416
tp1417
Rp1418
aI0
aI0
ag189
(g192
S'\x00\x00\x00\x00\x00\x00\xe2?'
p1419
tp1420
Rp1421
ag189
(g192
S'0\x96\xfcb\xc9/\xe2?'
p1422
tp1423
Rp1424
ag189
(g192
S'\xc0\xbb\xbb\xbb\xbb\xbb\xab?'
p1425
tp1426
Rp1427
ag189
(g192
S'\x9a\x99\x99\x99\x99\x99\xb9?'
p1428
tp1429
Rp1430
ag189
(g192
S'\xdd\xdd\xdd\xdd\xdd\xdd\xdd?'
p1431
tp1432
Rp1433
ag189
(g192
S'\x1e\xad\xd1\x1a\xad\xd1\xca?'
p1434
tp1435
Rp1436
ag189
(g192
S'ffffff\xe8?'
p1437
tp1438
Rp1439
ag189
(g192
S'\x00\x00\x00\x00\x00\x00\xea?'
p1440
tp1441
Rp1442
ag189
(g192
S'\x00\x00\x00\x00\x00\x00\xe2?'
p1443
tp1444
Rp1445
ag189
(g192
S'433333\xdb?'
p1446
tp1447
Rp1448
ag189
(g192
S'ffffff\xe6?'
p1449
tp1450
Rp1451
aI0
ag189
(g192
S'\xaeG\xe1z\x14\xae\xe3?'
p1452
tp1453
Rp1454
ag189
(g192
S'\xcd\xcc\xcc\xcc\xcc\xcc\xdc?'
p1455
tp1456
Rp1457
ag189
(g192
S'\x00\x00\x00\x00\x00\x00\xe0?'
p1458
tp1459
Rp1460
ag189
(g192
S'\xcd\xcc\xcc\xcc\xcc\xcc\xec?'
p1461
tp1462
Rp1463
ag189
(g192
S'\x00\x00\x00\x00\x00\x00\xe2?'
p1464
tp1465
Rp1466
ag189
(g192
S'\x00\x00\x00\x00\x00\x00\xf0?'
p1467
tp1468
Rp1469
ag189
(g192
S'UUUUUU\xcd?'
p1470
tp1471
Rp1472
ag189
(g192
S'\x9a\x99\x99\x99\x99\x99\xe9?'
p1473
tp1474
Rp1475
ag189
(g192
S'\x00\x00\x00\x00\x00\x00\xf0?'
p1476
tp1477
Rp1478
ag189
(g192
S'\xbc\xbb\xbb\xbb\xbb\xbb\xe3?'
p1479
tp1480
Rp1481
ag189
(g192
S'I\x92$I\x92$\xe1?'
p1482
tp1483
Rp1484
ag189
(g192
S'\x9a\x99\x99\x99\x99\x99\xd9?'
p1485
tp1486
Rp1487
ag189
(g192
S'UUUUUU\xe1?'
p1488
tp1489
Rp1490
ag189
(g192
S'\x00\x00\x00\x00\x00\x00\xf0?'
p1491
tp1492
Rp1493
ag189
(g192
S'\x00\x00\x00\x00\x00\x00\xf0?'
p1494
tp1495
Rp1496
ag189
(g192
S't\xd1E\x17]t\xe1?'
p1497
tp1498
Rp1499
aI0
ag189
(g192
S'\x00\x00\x00\x00\x00\x00\x00\x00'
p1500
tp1501
Rp1502
ag189
(g192
S'\x00\x00\x00\x00\x00\x00\xe4?'
p1503
tp1504
Rp1505
ag189
(g192
S'\xcd\xcc\xcc\xcc\xcc\xcc\xd8?'
p1506
tp1507
Rp1508
ag189
(g192
S'I\x92$I\x92$\xe1?'
p1509
tp1510
Rp1511
ag189
(g192
S'\x00\x00\x00\x00\x00\x00\xe8?'
p1512
tp1513
Rp1514
ag189
(g192
S'[\xb0\x05[\xb0\x05\xeb?'
p1515
tp1516
Rp1517
ag189
(g192
S'\x00\x00\x00\x00\x00\x00\xf0?'
p1518
tp1519
Rp1520
ag189
(g192
S'\xf5I\x9f\xf4I\x9f\xdc?'
p1521
tp1522
Rp1523
ag189
(g192
S'\x98\x99\x99\x99\x99\x99\xd9?'
p1524
tp1525
Rp1526
ag189
(g192
S'\xcd\xcc\xcc\xcc\xcc\xcc\xdc?'
p1527
tp1528
Rp1529
ag189
(g192
S'UUUUUU\xe5?'
p1530
tp1531
Rp1532
ag189
(g192
S'\x00\x00\x00\x00\x00\x00\xf0?'
p1533
tp1534
Rp1535
ag189
(g192
S'\x00\x00\x00\x00\x00\x00\xe8?'
p1536
tp1537
Rp1538
ag189
(g192
S'\x9a\x99\x99\x99\x99\x99\xd9?'
p1539
tp1540
Rp1541
ag189
(g192
S'\x00\x00\x00\x00\x00\x00\xf0?'
p1542
tp1543
Rp1544
ag189
(g192
S'DDDDDD\xe0?'
p1545
tp1546
Rp1547
ag189
(g192
S'433333\xe3?'
p1548
tp1549
Rp1550
ag189
(g192
S'\x9a\x99\x99\x99\x99\x99\xe5?'
p1551
tp1552
Rp1553
ag189
(g192
S'ffffff\xde?'
p1554
tp1555
Rp1556
ag189
(g192
S'\x00\x00\x00\x00\x00\x00\xe0?'
p1557
tp1558
Rp1559
ag189
(g192
S'\xcd\xcc\xcc\xcc\xcc\xcc\xec?'
p1560
tp1561
Rp1562
aI114
aI31
aI11
aI14
aI100
aI11
aI27
aI60
aI78
aI31
aI26
aI156
aI107
aI31
aI19
aI66
aI138
aI199
aI39
aI29
aI164
aI52
aI64
aI57
aI13
aI90
aI112
aI238
aI345
aI89
aI15
aI177
aI245
aI45
aI100
aI282
aI636
aI58
aI121
aI162
aI51
aI11
aI78
aI31
aI226
aI48
aI203
aI88
aI54
aI166
aI204
aI11
aI239
aI39
aI20
aI26
aI28
aI18
aI128
aI86
aI7
aI106
aI44
aI146
aI96
aI145
aI131
aI173
aI74
aI28
aI56
aI111
aI15
aI14
aI56
aI81
aI31
aI15
aI34
aI51
aI132
aI49
aI31
aI38
aI79
aI8
aI58
aI20
aI57
aI54
aI157
aI197
aI129
aI39
aI70
aI178
aI51
aI41
aI33
aI279
aI254
aI31
aI8
aI10
aI147
aI62
aI259
aI100
aI258
aI108
aI49
aI86
aI48
aI46
aI68
aI103
aI69
aI91
aI107
aI176
aI18
aI88
aI23
aI130
aF0.08974358974358974
aF0.0625
aF0.3333333333333333
aF0.0
aF0.0
aF0.125
aF0.07142857142857142
aF0.07692307692307693
aF0.0425531914893617
aF0.0
aF0.11764705882352941
aF0.05319148936170213
aF0.03225806451612903
aF0.0
aF0.0
aF0.04878048780487805
aF0.0
aF0.12698412698412698
aF0.13043478260869565
aF0.05263157894736842
aF0.18478260869565216
aF0.07142857142857142
aF0.0
aF0.0
aF0.0
aF0.03389830508474576
aF0.09375
aF0.04827586206896552
aF0.03684210526315789
aF0.0
aF0.0
aF0.05405405405405406
aF0.04195804195804196
aF0.08695652173913043
aF0.0
aF0.07975460122699386
aF0.09375
aF0.02857142857142857
aF0.09090909090909091
aF0.0
aF0.0
aF0.0
aF0.0
aF0.0
aF0.09210526315789473
aF0.15384615384615385
aF0.05084745762711865
aF0.037037037037037035
aF0.08823529411764706
aF0.056818181818181816
aF0.047619047619047616
aF0.0
aF0.10273972602739725
aF0.0
aF0.07142857142857142
aF0.07692307692307693
aF0.0625
aF0.0
aF0.058823529411764705
aF0.0
aF0.0
aF0.14516129032258066
aF0.10714285714285714
aF0.0
aF0.0392156862745098
aF0.04819277108433735
aF0.0963855421686747
aF0.03409090909090909
aF0.0
aF0.0
aF0.0
aF0.04
aF0.0
aF0.0
aF0.06060606060606061
aF0.0
aF0.045454545454545456
aF0.0
aF0.047619047619047616
aF0.0
aF0.05333333333333334
aF0.037037037037037035
aF0.043478260869565216
aF0.0
aF0.0
aF0.0
aF0.07894736842105263
aF0.0
aF0.0
aF0.10810810810810811
aF0.02127659574468085
aF0.05263157894736842
aF0.013333333333333334
aF0.0
aF0.06451612903225806
aF0.02702702702702703
aF0.1
aF0.0
aF0.0
aF0.04375
aF0.05847953216374269
aF0.0
aF0.0
aF0.0
aF0.0125
aF0.10810810810810811
aF0.04081632653061224
aF0.0
aF0.04081632653061224
aF0.12307692307692308
aF0.0
aF0.07142857142857142
aF0.06666666666666667
aF0.0
aF0.07894736842105263
aF0.014492753623188406
aF0.024390243902439025
aF0.06382978723404255
aF0.03571428571428571
aF0.04081632653061224
aF0.0
aF0.037037037037037035
aF0.0625
aF0.08695652173913043
ag189
(g192
S'\x92$I\x92$I0@'
p1563
tp1564
Rp1565
ag189
(g192
S'\x00\x00\x00\x00\x00\x00/@'
p1566
tp1567
Rp1568
ag189
(g192
S'\x00\x00\x00\x00\x00\x00&@'
p1569
tp1570
Rp1571
ag189
(g192
S'\x00\x00\x00\x00\x00\x00,@'
p1572
tp1573
Rp1574
ag189
(g192
S'\x00\x00\x00\x00\x00\x004@'
p1575
tp1576
Rp1577
ag189
(g192
S'\x00\x00\x00\x00\x00\x00&@'
p1578
tp1579
Rp1580
ag189
(g192
S'\x00\x00\x00\x00\x00\x00+@'
p1581
tp1582
Rp1583
ag189
(g192
S'\x00\x00\x00\x00\x00\x00.@'
p1584
tp1585
Rp1586
ag189
(g192
S'\x00\x00\x00\x00\x00\x00:@'
p1587
tp1588
Rp1589
ag189
(g192
S'\x00\x00\x00\x00\x00\x00/@'
p1590
tp1591
Rp1592
ag189
(g192
S'\x00\x00\x00\x00\x00\x00\x1a@'
p1593
tp1594
Rp1595
ag189
(g192
S'\x00\x00\x00\x00\x00\x00:@'
p1596
tp1597
Rp1598
ag189
(g192
S'%I\x92$I\x92\x1e@'
p1599
tp1600
Rp1601
ag189
(g192
S'\x00\x00\x00\x00\x00\x00/@'
p1602
tp1603
Rp1604
ag189
(g192
S'\x00\x00\x00\x00\x00\x00#@'
p1605
tp1606
Rp1607
ag189
(g192
S'\x00\x00\x00\x00\x00\x800@'
p1608
tp1609
Rp1610
ag189
(g192
S'\xab\xaa\xaa\xaa\xaa\xaa.@'
p1611
tp1612
Rp1613
ag189
(g192
S'\xdb\xb6m\xdb\xb6m<@'
p1614
tp1615
Rp1616
ag189
(g192
S'\x00\x00\x00\x00\x00\x803@'
p1617
tp1618
Rp1619
ag189
(g192
S'\x00\x00\x00\x00\x00\x00-@'
p1620
tp1621
Rp1622
ag189
(g192
S'\xdb\xb6m\xdb\xb6m7@'
p1623
tp1624
Rp1625
ag189
(g192
S'UUUUUU1@'
p1626
tp1627
Rp1628
ag189
(g192
S'UUUUUU5@'
p1629
tp1630
Rp1631
ag189
(g192
S'\x92$I\x92$I @'
p1632
tp1633
Rp1634
ag189
(g192
S'\x00\x00\x00\x00\x00\x00\x1a@'
p1635
tp1636
Rp1637
ag189
(g192
S'\x00\x00\x00\x00\x00\x806@'
p1638
tp1639
Rp1640
ag189
(g192
S'\xab\xaa\xaa\xaa\xaa\xaa2@'
p1641
tp1642
Rp1643
ag189
(g192
S'\x1c\xc7q\x1c\xc7q:@'
p1644
tp1645
Rp1646
ag189
(g192
S']t\xd1E\x17]/@'
p1647
tp1648
Rp1649
ag189
(g192
S'\xcd\xcc\xcc\xcc\xcc\xcc1@'
p1650
tp1651
Rp1652
ag189
(g192
S'\x00\x00\x00\x00\x00\x00.@'
p1653
tp1654
Rp1655
ag189
(g192
S'\x00\x00\x00\x00\x00\x80=@'
p1656
tp1657
Rp1658
ag189
(g192
S'\x8a\x9d\xd8\x89\x9d\xd82@'
p1659
tp1660
Rp1661
ag189
(g192
S'\x00\x00\x00\x00\x00\x806@'
p1662
tp1663
Rp1664
ag189
(g192
S'\x00\x00\x00\x00\x00\x004@'
p1665
tp1666
Rp1667
ag189
(g192
S'\x00\x00\x00\x00\x00\xa01@'
p1668
tp1669
Rp1670
ag189
(g192
S'\x84\xe5\x9eFX\xee5@'
p1671
tp1672
Rp1673
ag189
(g192
S'\x00\x00\x00\x00\x00\x00-@'
p1674
tp1675
Rp1676
ag189
(g192
S'3333338@'
p1677
tp1678
Rp1679
ag189
(g192
S'\x00\x00\x00\x00\x00@4@'
p1680
tp1681
Rp1682
ag189
(g192
S'\x00\x00\x00\x00\x00\x001@'
p1683
tp1684
Rp1685
ag189
(g192
S'\x00\x00\x00\x00\x00\x00&@'
p1686
tp1687
Rp1688
ag189
(g192
S'\x00\x00\x00\x00\x00\x00*@'
p1689
tp1690
Rp1691
ag189
(g192
S'\xab\xaa\xaa\xaa\xaa\xaa$@'
p1692
tp1693
Rp1694
ag189
(g192
S"'vb'vb1@"
p1695
tp1696
Rp1697
ag189
(g192
S'\x00\x00\x00\x00\x00\x008@'
p1698
tp1699
Rp1700
ag189
(g192
S'\x11\x11\x11\x11\x11\x11+@'
p1701
tp1702
Rp1703
ag189
(g192
S'I\x92$I\x92$)@'
p1704
tp1705
Rp1706
ag189
(g192
S'\x00\x00\x00\x00\x00\x00+@'
p1707
tp1708
Rp1709
ag189
(g192
S'\x9e\xd8\x89\x9d\xd8\x89)@'
p1710
tp1711
Rp1712
ag189
(g192
S'ffffff4@'
p1713
tp1714
Rp1715
ag189
(g192
S'\x00\x00\x00\x00\x00\x00&@'
p1716
tp1717
Rp1718
ag189
(g192
S'\x00\x00\x00\x00\x00\xe0=@'
p1719
tp1720
Rp1721
ag189
(g192
S'\x00\x00\x00\x00\x00\x80C@'
p1722
tp1723
Rp1724
ag189
(g192
S'\x00\x00\x00\x00\x00\x004@'
p1725
tp1726
Rp1727
ag189
(g192
S'\x00\x00\x00\x00\x00\x00*@'
p1728
tp1729
Rp1730
ag189
(g192
S'\x00\x00\x00\x00\x00\x00\x1c@'
p1731
tp1732
Rp1733
ag189
(g192
S'\x00\x00\x00\x00\x00\x002@'
p1734
tp1735
Rp1736
ag189
(g192
S'\x00\x00\x00\x00\x00\x000@'
p1737
tp1738
Rp1739
ag189
(g192
S'\x00\x00\x00\x00\x00\x805@'
p1740
tp1741
Rp1742
ag189
(g192
S'\x00\x00\x00\x00\x00\x00\x0c@'
p1743
tp1744
Rp1745
ag189
(g192
S'\x92$I\x92$I.@'
p1746
tp1747
Rp1748
ag189
(g192
S'\x00\x00\x00\x00\x00\x00F@'
p1749
tp1750
Rp1751
ag189
(g192
S'333333-@'
p1752
tp1753
Rp1754
ag189
(g192
S'\x00\x00\x00\x00\x00\x000@'
p1755
tp1756
Rp1757
ag189
(g192
S'\xc7q\x1c\xc7q\x1c0@'
p1758
tp1759
Rp1760
ag189
(g192
S'\x00\x00\x00\x00\x00`0@'
p1761
tp1762
Rp1763
ag189
(g192
S'\x8e\xe38\x8e\xe383@'
p1764
tp1765
Rp1766
ag189
(g192
S'\x00\x00\x00\x00\x00\x80B@'
p1767
tp1768
Rp1769
ag189
(g192
S'\x00\x00\x00\x00\x00\x00<@'
p1770
tp1771
Rp1772
ag189
(g192
S'\x00\x00\x00\x00\x00\x00,@'
p1773
tp1774
Rp1775
ag189
(g192
S'\x00\x00\x00\x00\x00\xc0+@'
p1776
tp1777
Rp1778
ag189
(g192
S'\x00\x00\x00\x00\x00\x00.@'
p1779
tp1780
Rp1781
ag189
(g192
S'\x00\x00\x00\x00\x00\x00,@'
p1782
tp1783
Rp1784
ag189
(g192
S'\xab\xaa\xaa\xaa\xaa\xaa2@'
p1785
tp1786
Rp1787
ag189
(g192
S'\x00\x00\x00\x00\x00@4@'
p1788
tp1789
Rp1790
ag189
(g192
S'\x00\x00\x00\x00\x00\x00/@'
p1791
tp1792
Rp1793
ag189
(g192
S'\x00\x00\x00\x00\x00\x00\x14@'
p1794
tp1795
Rp1796
ag189
(g192
S'\x00\x00\x00\x00\x00\x00!@'
p1797
tp1798
Rp1799
ag189
(g192
S'\x00\x00\x00\x00\x00\x001@'
p1800
tp1801
Rp1802
ag189
(g192
S'\x00\x00\x00\x00\x00\x006@'
p1803
tp1804
Rp1805
ag189
(g192
S'\x00\x00\x00\x00\x00\x80(@'
p1806
tp1807
Rp1808
ag189
(g192
S'\x00\x00\x00\x00\x00\x00/@'
p1809
tp1810
Rp1811
ag189
(g192
S'\x00\x00\x00\x00\x00\x003@'
p1812
tp1813
Rp1814
ag189
(g192
S'UUUUUU*@'
p1815
tp1816
Rp1817
ag189
(g192
S'\x00\x00\x00\x00\x00\x00 @'
p1818
tp1819
Rp1820
ag189
(g192
S'\x00\x00\x00\x00\x00\x00=@'
p1821
tp1822
Rp1823
ag189
(g192
S'\x00\x00\x00\x00\x00\x00$@'
p1824
tp1825
Rp1826
ag189
(g192
S'\xcd\xcc\xcc\xcc\xcc\xcc&@'
p1827
tp1828
Rp1829
ag189
(g192
S'\x9a\x99\x99\x99\x99\x99%@'
p1830
tp1831
Rp1832
ag189
(g192
S'\x1c\xc7q\x1c\xc7q1@'
p1833
tp1834
Rp1835
ag189
(g192
S'\xe9\xa2\x8b.\xba\xe81@'
p1836
tp1837
Rp1838
ag189
(g192
S'\x00\x00\x00\x00\x00\x80E@'
p1839
tp1840
Rp1841
ag189
(g192
S'333333\x1f@'
p1842
tp1843
Rp1844
ag189
(g192
S"UUUUUU'@"
p1845
tp1846
Rp1847
ag189
(g192
S'\xab\xaa\xaa\xaa\xaa\xaa=@'
p1848
tp1849
Rp1850
ag189
(g192
S'\x00\x00\x00\x00\x00\x80)@'
p1851
tp1852
Rp1853
ag189
(g192
S'\x00\x00\x00\x00\x00\x804@'
p1854
tp1855
Rp1856
ag189
(g192
S'\x00\x00\x00\x00\x00\x80@@'
p1857
tp1858
Rp1859
ag189
(g192
S'\x9a\x99\x99\x99\x99\x992@'
p1860
tp1861
Rp1862
ag189
(g192
S'\xcak(\xaf\xa1\xbc*@'
p1863
tp1864
Rp1865
ag189
(g192
S'\x00\x00\x00\x00\x00\x00/@'
p1866
tp1867
Rp1868
ag189
(g192
S'\x00\x00\x00\x00\x00\x00 @'
p1869
tp1870
Rp1871
ag189
(g192
S'\x00\x00\x00\x00\x00\x00\x14@'
p1872
tp1873
Rp1874
ag189
(g192
S'\x00\x00\x00\x00\x00\x005@'
p1875
tp1876
Rp1877
ag189
(g192
S'\x00\x00\x00\x00\x00\x00/@'
p1878
tp1879
Rp1880
ag189
(g192
S'\x00\x00\x00\x00\x00\x80B@'
p1881
tp1882
Rp1883
ag189
(g192
S'\x00\x00\x00\x00\x00\x004@'
p1884
tp1885
Rp1886
ag189
(g192
S'\xdb\xb6m\xdb\xb6mB@'
p1887
tp1888
Rp1889
ag189
(g192
S'\x00\x00\x00\x00\x00\x00(@'
p1890
tp1891
Rp1892
ag189
(g192
S'UUUUUU0@'
p1893
tp1894
Rp1895
ag189
(g192
S'\x00\x00\x00\x00\x00\x805@'
p1896
tp1897
Rp1898
ag189
(g192
S'\x00\x00\x00\x00\x00\x00(@'
p1899
tp1900
Rp1901
ag189
(g192
S'\x00\x00\x00\x00\x00\x00G@'
p1902
tp1903
Rp1904
ag189
(g192
S'333333+@'
p1905
tp1906
Rp1907
ag189
(g192
S'9\x8e\xe38\x8e\xe3&@'
p1908
tp1909
Rp1910
ag189
(g192
S'\x9a\x99\x99\x99\x99\x99+@'
p1911
tp1912
Rp1913
ag189
(g192
S'\x00\x00\x00\x00\x00\xc0&@'
p1914
tp1915
Rp1916
ag189
(g192
S'%I\x92$I\x92.@'
p1917
tp1918
Rp1919
ag189
(g192
S'\x00\x00\x00\x00\x00\x00F@'
p1920
tp1921
Rp1922
ag189
(g192
S'\x00\x00\x00\x00\x00\x002@'
p1923
tp1924
Rp1925
ag189
(g192
S'\x00\x00\x00\x00\x00\x006@'
p1926
tp1927
Rp1928
ag189
(g192
S'\xab\xaa\xaa\xaa\xaa\xaa\x1e@'
p1929
tp1930
Rp1931
ag189
(g192
S'\x00\x00\x00\x00\x00@0@'
p1932
tp1933
Rp1934
ag189
(g192
S'433333\xa3?'
p1935
tp1936
Rp1937
ag189
(g192
S'\x00\x00\x00\x00\x00\x00\xd0?'
p1938
tp1939
Rp1940
ag189
(g192
S'\x9a\x99\x99\x99\x99\x99\xc9?'
p1941
tp1942
Rp1943
ag189
(g192
S'\x00\x00\x00\x00\x00\x00\x00\x00'
p1944
tp1945
Rp1946
ag189
(g192
S'\x00\x00\x00\x00\x00\x00\x00\x00'
p1947
tp1948
Rp1949
ag189
(g192
S'\x9a\x99\x99\x99\x99\x99\xd9?'
p1950
tp1951
Rp1952
ag189
(g192
S'\x00\x00\x00\x00\x00\x00\x00\x00'
p1953
tp1954
Rp1955
ag189
(g192
S'\x9a\x99\x99\x99\x99\x99\xd9\xbf'
p1956
tp1957
Rp1958
ag189
(g192
S'ffffff\xb6\xbf'
p1959
tp1960
Rp1961
ag189
(g192
S'\x00\x00\x00\x00\x00\x00\x00\x00'
p1962
tp1963
Rp1964
ag189
(g192
S'\x9a\x99\x99\x99\x99\x99\xa9\xbf'
p1965
tp1966
Rp1967
ag189
(g192
S'ffffff\xe6?'
p1968
tp1969
Rp1970
ag189
(g192
S'\xff\xff\xff\xff\xff\xff\xbf\xbf'
p1971
tp1972
Rp1973
ag189
(g192
S'333333\xd3?'
p1974
tp1975
Rp1976
ag189
(g192
S'\x00\x00\x00\x00\x00\x00\x00\x00'
p1977
tp1978
Rp1979
ag189
(g192
S'\x00\x00\x00\x00\x00\x00\x00\x00'
p1980
tp1981
Rp1982
ag189
(g192
S'\x88M\xa5!\xe7>\xab?'
p1983
tp1984
Rp1985
ag189
(g192
S'v\x01\xb1\xa94\xe4\xbc?'
p1986
tp1987
Rp1988
ag189
(g192
S'\xcc\xcc\xcc\xcc\xcc\xcc\xbc?'
p1989
tp1990
Rp1991
ag189
(g192
S'\xdd\xdd\xdd\xdd\xdd\xdd\xbd?'
p1992
tp1993
Rp1994
ag189
(g192
S't\xd1E\x17]t\xc1?'
p1995
tp1996
Rp1997
ag189
(g192
S'\x99\x99\x99\x99\x99\x99\xc9\xbf'
p1998
tp1999
Rp2000
ag189
(g192
S'\x98\x99\x99\x99\x99\x99\xa9\xbf'
p2001
tp2002
Rp2003
ag189
(g192
S'\x00\x00\x00\x00\x00\x00\x00\x00'
p2004
tp2005
Rp2006
ag189
(g192
S'\x9a\x99\x99\x99\x99\x99\xe1?'
p2007
tp2008
Rp2009
ag189
(g192
S'ffffff\xd6?'
p2010
tp2011
Rp2012
ag189
(g192
S'\x98\x99\x99\x99\x99\x99\x99?'
p2013
tp2014
Rp2015
ag189
(g192
S'\x9a\x99\x99\x99\x99\x99\x99\xbf'
p2016
tp2017
Rp2018
ag189
(g192
S'{\x14\xaeG\xe1z\xb4?'
p2019
tp2020
Rp2021
ag189
(g192
S'\x00\x00\x00\x00\x00\x00\x00\x00'
p2022
tp2023
Rp2024
ag189
(g192
S'\x00\x00\x00\x00\x00\x00\x00\x00'
p2025
tp2026
Rp2027
ag189
(g192
S'\xe6)\x93[\x15\xe5s?'
p2028
tp2029
Rp2030
ag189
(g192
S'\xb1\x1f\xfb\xb1\x1f\xfb\xb9?'
p2031
tp2032
Rp2033
ag189
(g192
S'\xdd\xdd\xdd\xdd\xdd\xdd\xcd?'
p2034
tp2035
Rp2036
ag189
(g192
S'ffffff\xa6?'
p2037
tp2038
Rp2039
ag189
(g192
S'\x00\x00\x00\x00\x00\x00\x00\x00'
p2040
tp2041
Rp2042
ag189
(g192
S'\x00\x00\x00\x00\x00\x00\xc8\xbf'
p2043
tp2044
Rp2045
ag189
(g192
S'XUUUUU\x95?'
p2046
tp2047
Rp2048
ag189
(g192
S'\x99\x99\x99\x99\x99\x99\xb9?'
p2049
tp2050
Rp2051
ag189
(g192
S'\x00\x00\x00\x00\x00\x00\x00\x00'
p2052
tp2053
Rp2054
ag189
(g192
S'DDDDDD\xd4?'
p2055
tp2056
Rp2057
ag189
(g192
S'\x00\x00\x00\x00\x00\x00\x00\x00'
p2058
tp2059
Rp2060
ag189
(g192
S'ffffff\xd6?'
p2061
tp2062
Rp2063
ag189
(g192
S'\x00\x00\x00\x00\x00\x00\x00\x00'
p2064
tp2065
Rp2066
ag189
(g192
S'\x07:m\xa0\xd3\x06\xe2?'
p2067
tp2068
Rp2069
ag189
(g192
S'\x00\x00\x00\x00\x00\x00\x00\x00'
p2070
tp2071
Rp2072
ag189
(g192
S'\x00\x00\x00\x00\x00\x00\xd0?'
p2073
tp2074
Rp2075
ag189
(g192
S'\x00\x00\x00\x00\x00\x00\x00\x00'
p2076
tp2077
Rp2078
ag189
(g192
S'\x00\x00\x00\x00\x00\x00\x00\x00'
p2079
tp2080
Rp2081
ag189
(g192
S'\x9a\x99\x99\x99\x99\x99\xc9?'
p2082
tp2083
Rp2084
ag189
(g192
S'W|\xc5W|\xc5\xb7?'
p2085
tp2086
Rp2087
ag189
(g192
S'\x00\x00\x00\x00\x00\x00\x00\x00'
p2088
tp2089
Rp2090
ag189
(g192
S'433333\xd3\xbf'
p2091
tp2092
Rp2093
ag189
(g192
S'\x11\x11\x11\x11\x11\x11\xb1\xbf'
p2094
tp2095
Rp2096
ag189
(g192
S'\x00\x00\x00\x00\x00\x00\x00\x00'
p2097
tp2098
Rp2099
ag189
(g192
S'\x9a\x99\x99\x99\x99\x99\xc9\xbf'
p2100
tp2101
Rp2102
ag189
(g192
S'\x00\x00\x00\x00\x00\x00\xe0\xbf'
p2103
tp2104
Rp2105
ag189
(g192
S'\x00\x00\x00\x00\x00\x00\x00\x00'
p2106
tp2107
Rp2108
ag189
(g192
S'\x00\x00\x00\x00\x00\x00\x00\x00'
p2109
tp2110
Rp2111
ag189
(g192
S'\x89\x88\x88\x88\x88\x88\xb2?'
p2112
tp2113
Rp2114
ag189
(g192
S'\x00\x00\x00\x00\x00\x00\x00\x00'
p2115
tp2116
Rp2117
ag189
(g192
S'\x00\x00\x00\x00\x00\x00\xd8?'
p2118
tp2119
Rp2120
ag189
(g192
S'\xdd\xdd\xdd\xdd\xdd\xdd\xd5?'
p2121
tp2122
Rp2123
ag189
(g192
S'333333\xe3?'
p2124
tp2125
Rp2126
ag189
(g192
S'\x95>\xe9\x93>\xe9\xb3\xbf'
p2127
tp2128
Rp2129
ag189
(g192
S'\x00\x00\x00\x00\x00\x00\x00\x00'
p2130
tp2131
Rp2132
ag189
(g192
S'\x9a\x99\x99\x99\x99\x99\xb9?'
p2133
tp2134
Rp2135
ag189
(g192
S'\x00\x00\x00\x00\x00\x00\x00\x00'
p2136
tp2137
Rp2138
ag189
(g192
S'\x9a\x99\x99\x99\x99\x99\xc9?'
p2139
tp2140
Rp2141
ag189
(g192
S'UUUUUU\xc5?'
p2142
tp2143
Rp2144
ag189
(g192
S'\x9a\x99\x99\x99\x99\x99\xd9?'
p2145
tp2146
Rp2147
ag189
(g192
S'\x9a\x99\x99\x99\x99\x99\xb9?'
p2148
tp2149
Rp2150
ag189
(g192
S'333333\xd3?'
p2151
tp2152
Rp2153
ag189
(g192
S'\x00\x00\x00\x00\x00\x00\x00\x00'
p2154
tp2155
Rp2156
ag189
(g192
S'433333\xc3?'
p2157
tp2158
Rp2159
ag189
(g192
S'\x00\x00\x00\x00\x00\x00\x00\x00'
p2160
tp2161
Rp2162
ag189
(g192
S'\x11\x11\x11\x11\x11\x11\xd1?'
p2163
tp2164
Rp2165
ag189
(g192
S'\x00\x00\x00\x00\x00\x00\x00\x00'
p2166
tp2167
Rp2168
ag189
(g192
S'\x9a\x99\x99\x99\x99\x99\xd9?'
p2169
tp2170
Rp2171
ag189
(g192
S'\x00\x00\x00\x00\x00\x00\x00\x00'
p2172
tp2173
Rp2174
ag189
(g192
S'\x9a\x99\x99\x99\x99\x99\xc1?'
p2175
tp2176
Rp2177
ag189
(g192
S'\x00\x00\x00\x00\x00\x00\x00\x00'
p2178
tp2179
Rp2180
ag189
(g192
S'""""""\xc7?'
p2181
tp2182
Rp2183
ag189
(g192
S'\x9a\x99\x99\x99\x99\x99\xd9?'
p2184
tp2185
Rp2186
ag189
(g192
S'\xf8\x8a\xaf\xf8\x8a\xaf\xb0?'
p2187
tp2188
Rp2189
ag189
(g192
S'\x00\x00\x00\x00\x00\x00\xa0\xbf'
p2190
tp2191
Rp2192
ag189
(g192
S'\xcd\xcc\xcc\xcc\xcc\xcc\xd4?'
p2193
tp2194
Rp2195
ag189
(g192
S'ffffff\xc6?'
p2196
tp2197
Rp2198
ag189
(g192
S'\x00\x00\x00\x00\x00\x00\x00\x00'
p2199
tp2200
Rp2201
ag189
(g192
S'\x00\x00\x00\x00\x00\x00\x00\x00'
p2202
tp2203
Rp2204
ag189
(g192
S'\x00\x00\x00\x00\x00\x00\x00\x00'
p2205
tp2206
Rp2207
ag189
(g192
S'\n\xd7\xa3p=\n\xc7?'
p2208
tp2209
Rp2210
ag189
(g192
S'\x00\x00\x00\x00\x00\x00\xb0?'
p2211
tp2212
Rp2213
ag189
(g192
S'\x00\x00\x00\x00\x00\x00\x00\x00'
p2214
tp2215
Rp2216
ag189
(g192
S'\x00\x00\x00\x00\x00\x00\x00\x00'
p2217
tp2218
Rp2219
ag189
(g192
S'\x00\x00\x00\x00\x00\x00\xe0\xbf'
p2220
tp2221
Rp2222
ag189
(g192
S'\x9a\x99\x99\x99\x99\x99\xc9?'
p2223
tp2224
Rp2225
ag189
(g192
S'\x9a\x99\x99\x99\x99\x99\xc9?'
p2226
tp2227
Rp2228
ag189
(g192
S'\xab\xaa\xaa\xaa\xaa\xaa\xd2\xbf'
p2229
tp2230
Rp2231
ag189
(g192
S't\xd1E\x17]t\xb1?'
p2232
tp2233
Rp2234
ag189
(g192
S'\x00\x00\x00\x00\x00\x00\xc0\xbf'
p2235
tp2236
Rp2237
ag189
(g192
S'\x00\x00\x00\x00\x00\x00\x00\x00'
p2238
tp2239
Rp2240
ag189
(g192
S'\x00\x00\x00\x00\x00\x00\x00\x00'
p2241
tp2242
Rp2243
ag189
(g192
S'\x00\x00\x00\x00\x00\x00\x00\x00'
p2244
tp2245
Rp2246
ag189
(g192
S'""""""\xca?'
p2247
tp2248
Rp2249
ag189
(g192
S'ffffff\xc6?'
p2250
tp2251
Rp2252
ag189
(g192
S'\xf8\x8a\xaf\xf8\x8a\xaf\xb0?'
p2253
tp2254
Rp2255
ag189
(g192
S'\xcd\xcc\xcc\xcc\xcc\xcc\xd0?'
p2256
tp2257
Rp2258
ag189
(g192
S'\xf8\x8a\xaf\xf8\x8a\xaf\xb0?'
p2259
tp2260
Rp2261
ag189
(g192
S'ffffff\xe6?'
p2262
tp2263
Rp2264
ag189
(g192
S'\xfc\xa4O\xfa\xa4O\xba?'
p2265
tp2266
Rp2267
ag189
(g192
S'\x00\x00\x00\x00\x00\x00\x00\x00'
p2268
tp2269
Rp2270
ag189
(g192
S'\x9a\x99\x99\x99\x99\x99\xb9?'
p2271
tp2272
Rp2273
ag189
(g192
S'\x9c\xcd\xd9\x9c\xcd\xd9\x9c?'
p2274
tp2275
Rp2276
ag189
(g192
S'\x00\x00\x00\x00\x00\x00\x00\x00'
p2277
tp2278
Rp2279
ag189
(g192
S'xwwwww\xdb?'
p2280
tp2281
Rp2282
ag189
(g192
S'\x00\x00\x00\x00\x00\x00\xc0?'
p2283
tp2284
Rp2285
ag189
(g192
S'333333\xe3?'
p2286
tp2287
Rp2288
ag189
(g192
S'\x9a\x99\x99\x99\x99\x99\xd9?'
p2289
tp2290
Rp2291
ag189
(g192
S'\x00\x00\x00\x00\x00\x00\x00\x00'
p2292
tp2293
Rp2294
ag189
(g192
S'\x9a\x99\x99\x99\x99\x99\xc9?'
p2295
tp2296
Rp2297
ag189
(g192
S'\n\xd7\xa3p=\n\xa7?'
p2298
tp2299
Rp2300
ag189
(g192
S'\x00\x00\x00\x00\x00\x00\x00\x00'
p2301
tp2302
Rp2303
ag189
(g192
S'\x00\x00\x00\x00\x00\x00\x00\x00'
p2304
tp2305
Rp2306
ag189
(g192
S'\xcc\xcc\xcc\xcc\xcc\xcc\xd4?'
p2307
tp2308
Rp2309
ag189
(g192
S'\x00\x00\x00\x00\x00\x00\xd0?'
p2310
tp2311
Rp2312
ag189
(g192
S'\x9a\x99\x99\x99\x99\x99\xc9?'
p2313
tp2314
Rp2315
ag189
(g192
S'\x00\x00\x00\x00\x00\x00\x00\x00'
p2316
tp2317
Rp2318
ag189
(g192
S'\xcd\xcc\xcc\xcc\xcc\xcc\xd0?'
p2319
tp2320
Rp2321
ag189
(g192
S'ffffff\xe6?'
p2322
tp2323
Rp2324
ag189
(g192
S'\x00\x00\x00\x00\x00\x00\x00\x00'
p2325
tp2326
Rp2327
ag189
(g192
S'ffffff\xe6?'
p2328
tp2329
Rp2330
ag189
(g192
S'ffffff\xe2?'
p2331
tp2332
Rp2333
ag189
(g192
S'\x9a\x99\x99\x99\x99\x99\xc9?'
p2334
tp2335
Rp2336
ag189
(g192
S'\x9a\x99\x99\x99\x99\x99\xd9?'
p2337
tp2338
Rp2339
ag189
(g192
S'\xcd\xcc\xcc\xcc\xcc\xcc\xec?'
p2340
tp2341
Rp2342
ag189
(g192
S'333333\xeb?'
p2343
tp2344
Rp2345
ag189
(g192
S'\x9a\x99\x99\x99\x99\x99\xd9?'
p2346
tp2347
Rp2348
ag189
(g192
S'\x00\x00\x00\x00\x00\x00\x00\x00'
p2349
tp2350
Rp2351
ag189
(g192
S'\x00\x00\x00\x00\x00\x00\x00\x00'
p2352
tp2353
Rp2354
ag189
(g192
S'\xe7>\xbb\x80\xd8T\xd6?'
p2355
tp2356
Rp2357
ag189
(g192
S'\xce}v\x01\xb1\xa9\xe0?'
p2358
tp2359
Rp2360
ag189
(g192
S'\x9a\x99\x99\x99\x99\x99\xdd?'
p2361
tp2362
Rp2363
ag189
(g192
S'\x00\x00\x00\x00\x00\x00\xe0?'
p2364
tp2365
Rp2366
ag189
(g192
S'\x17]t\xd1E\x17\xdd?'
p2367
tp2368
Rp2369
ag189
(g192
S'DDDDDD\xe4?'
p2370
tp2371
Rp2372
ag189
(g192
S'\xcd\xcc\xcc\xcc\xcc\xcc\xdc?'
p2373
tp2374
Rp2375
ag189
(g192
S'\x00\x00\x00\x00\x00\x00\x00\x00'
p2376
tp2377
Rp2378
ag189
(g192
S'\x00\x00\x00\x00\x00\x00\xe8?'
p2379
tp2380
Rp2381
ag189
(g192
S'\x9a\x99\x99\x99\x99\x99\xe1?'
p2382
tp2383
Rp2384
ag189
(g192
S'\xcd\xcc\xcc\xcc\xcc\xcc\xd0?'
p2385
tp2386
Rp2387
ag189
(g192
S'\x9a\x99\x99\x99\x99\x99\xa9?'
p2388
tp2389
Rp2390
ag189
(g192
S'\x14\xaeG\xe1z\x14\xde?'
p2391
tp2392
Rp2393
ag189
(g192
S'\x00\x00\x00\x00\x00\x00\x00\x00'
p2394
tp2395
Rp2396
ag189
(g192
S'\x00\x00\x00\x00\x00\x00\xe0?'
p2397
tp2398
Rp2399
ag189
(g192
S'\xe4\x1fy\xa6\x15\xa2\xe2?'
p2400
tp2401
Rp2402
ag189
(g192
S'\xfd\xd8\x8f\xfd\xd8\x8f\xd7?'
p2403
tp2404
Rp2405
ag189
(g192
S'xwwwww\xe7?'
p2406
tp2407
Rp2408
ag189
(g192
S'\x00\x00\x00\x00\x00\x00\xcc?'
p2409
tp2410
Rp2411
ag189
(g192
S'\x00\x00\x00\x00\x00\x00\xf0?'
p2412
tp2413
Rp2414
ag189
(g192
S'\x00\x00\x00\x00\x00\x00\xdc?'
p2415
tp2416
Rp2417
ag189
(g192
S'\x11\x11\x11\x11\x11\x11\xe9?'
p2418
tp2419
Rp2420
ag189
(g192
S'\x99\x99\x99\x99\x99\x99\xc9?'
p2421
tp2422
Rp2423
ag189
(g192
S'\x00\x00\x00\x00\x00\x00\x00\x00'
p2424
tp2425
Rp2426
ag189
(g192
S'\xa5O\xfa\xa4O\xfa\xe0?'
p2427
tp2428
Rp2429
ag189
(g192
S'\x00\x00\x00\x00\x00\x00\x00\x00'
p2430
tp2431
Rp2432
ag189
(g192
S'\x00\x00\x00\x00\x00\x00\xe2?'
p2433
tp2434
Rp2435
ag189
(g192
S'\x00\x00\x00\x00\x00\x00\x00\x00'
p2436
tp2437
Rp2438
ag189
(g192
S'\x81N\x1b\xe8\xb4\x81\xee?'
p2439
tp2440
Rp2441
ag189
(g192
S'ffffff\xd6?'
p2442
tp2443
Rp2444
ag189
(g192
S'\x00\x00\x00\x00\x00\x00\xe8?'
p2445
tp2446
Rp2447
ag189
(g192
S'\x00\x00\x00\x00\x00\x00\x00\x00'
p2448
tp2449
Rp2450
ag189
(g192
S'\x9a\x99\x99\x99\x99\x99\xe1?'
p2451
tp2452
Rp2453
ag189
(g192
S'\x9a\x99\x99\x99\x99\x99\xc9?'
p2454
tp2455
Rp2456
ag189
(g192
S'\x16_\xf1\x15_\xf1\xdd?'
p2457
tp2458
Rp2459
ag189
(g192
S'\x00\x00\x00\x00\x00\x00\x00\x00'
p2460
tp2461
Rp2462
ag189
(g192
S'\x9a\x99\x99\x99\x99\x99\xc9?'
p2463
tp2464
Rp2465
ag189
(g192
S'\xbc\xbb\xbb\xbb\xbb\xbb\xdb?'
p2466
tp2467
Rp2468
ag189
(g192
S'\x00\x00\x00\x00\x00\x00\x00\x00'
p2469
tp2470
Rp2471
ag189
(g192
S'\x9a\x99\x99\x99\x99\x99\xe9?'
p2472
tp2473
Rp2474
ag189
(g192
S'\xab\xaa\xaa\xaa\xaa\xaa\xe6?'
p2475
tp2476
Rp2477
ag189
(g192
S'\x8e\xe38\x8e\xe38\xe6?'
p2478
tp2479
Rp2480
ag189
(g192
S'\x00\x00\x00\x00\x00\x00\x00\x00'
p2481
tp2482
Rp2483
ag189
(g192
S'\x00\x00\x00\x00\x00\x00\xd4?'
p2484
tp2485
Rp2486
ag189
(g192
S'\x00\x00\x00\x00\x00\x00\x00\x00'
p2487
tp2488
Rp2489
ag189
(g192
S'\x00\x00\x00\x00\x00\x00\xf0?'
p2490
tp2491
Rp2492
ag189
(g192
S'\xdbKh/\xa1\xbd\xe4?'
p2493
tp2494
Rp2495
ag189
(g192
S'\x00\x00\x00\x00\x00\x00\xf0?'
p2496
tp2497
Rp2498
ag189
(g192
S"\xd3'}\xd2'}\xc2?"
p2499
tp2500
Rp2501
ag189
(g192
S'\x9a\x99\x99\x99\x99\x99\xe1?'
p2502
tp2503
Rp2504
ag189
(g192
S'\x9a\x99\x99\x99\x99\x99\xa9?'
p2505
tp2506
Rp2507
ag189
(g192
S'333333\xe3?'
p2508
tp2509
Rp2510
ag189
(g192
S'\x9a\x99\x99\x99\x99\x99\xb9?'
p2511
tp2512
Rp2513
ag189
(g192
S'UUUUUU\xe1?'
p2514
tp2515
Rp2516
ag189
(g192
S'\x9a\x99\x99\x99\x99\x99\xe9?'
p2517
tp2518
Rp2519
ag189
(g192
S'\x9a\x99\x99\x99\x99\x99\xd9?'
p2520
tp2521
Rp2522
ag189
(g192
S'""""""\xe6?'
p2523
tp2524
Rp2525
ag189
(g192
S'\x00\x00\x00\x00\x00\x00\x00\x00'
p2526
tp2527
Rp2528
ag189
(g192
S'\x00\x00\x00\x00\x00\x00\xd0?'
p2529
tp2530
Rp2531
ag189
(g192
S'\x00\x00\x00\x00\x00\x00\x00\x00'
p2532
tp2533
Rp2534
ag189
(g192
S'\xbc\xbb\xbb\xbb\xbb\xbb\xdb?'
p2535
tp2536
Rp2537
ag189
(g192
S'\x00\x00\x00\x00\x00\x00\x00\x00'
p2538
tp2539
Rp2540
ag189
(g192
S'433333\xe3?'
p2541
tp2542
Rp2543
ag189
(g192
S'\xb7m\xdb\xb6m\xdb\xd6?'
p2544
tp2545
Rp2546
ag189
(g192
S'333333\xe7?'
p2547
tp2548
Rp2549
ag189
(g192
S'\x00\x00\x00\x00\x00\x00\xea?'
p2550
tp2551
Rp2552
ag189
(g192
S'\x00\x00\x00\x00\x00\x00\xd2?'
p2553
tp2554
Rp2555
ag189
(g192
S'\x9a\x99\x99\x99\x99\x99\xe9?'
p2556
tp2557
Rp2558
ag189
(g192
S'X|\xc5W|\xc5\xd1?'
p2559
tp2560
Rp2561
ag189
(g192
S'UUUUUU\xe0?'
p2562
tp2563
Rp2564
ag189
(g192
S'\xaeG\xe1z\x14\xae\xe3?'
p2565
tp2566
Rp2567
ag189
(g192
S'\xcd\xcc\xcc\xcc\xcc\xcc\xcc?'
p2568
tp2569
Rp2570
ag189
(g192
S'\x00\x00\x00\x00\x00\x00\xe0?'
p2571
tp2572
Rp2573
ag189
(g192
S'\x00\x00\x00\x00\x00\x00\x00\x00'
p2574
tp2575
Rp2576
ag189
(g192
S'\x00\x00\x00\x00\x00\x00\xc0?'
p2577
tp2578
Rp2579
ag189
(g192
S't\xda@\xa7\rt\xe2?'
p2580
tp2581
Rp2582
ag189
(g192
S'\x11\x11\x11\x11\x11\x11\xd5?'
p2583
tp2584
Rp2585
ag189
(g192
S'\x00\x00\x00\x00\x00\x00\x00\x00'
p2586
tp2587
Rp2588
ag189
(g192
S'\x00\x00\x00\x00\x00\x00\x00\x00'
p2589
tp2590
Rp2591
ag189
(g192
S'\x00\x00\x00\x00\x00\x00\xe0?'
p2592
tp2593
Rp2594
ag189
(g192
S'\x9a\x99\x99\x99\x99\x99\xc9?'
p2595
tp2596
Rp2597
ag189
(g192
S'\x9a\x99\x99\x99\x99\x99\xd9?'
p2598
tp2599
Rp2600
ag189
(g192
S'UUUUUU\xe1?'
p2601
tp2602
Rp2603
ag189
(g192
S'\x17]t\xd1E\x17\xcd?'
p2604
tp2605
Rp2606
ag189
(g192
S'\x00\x00\x00\x00\x00\x00\xd8?'
p2607
tp2608
Rp2609
ag189
(g192
S'\x00\x00\x00\x00\x00\x00\x00\x00'
p2610
tp2611
Rp2612
ag189
(g192
S'\x00\x00\x00\x00\x00\x00\x00\x00'
p2613
tp2614
Rp2615
ag189
(g192
S'\x00\x00\x00\x00\x00\x00\x00\x00'
p2616
tp2617
Rp2618
ag189
(g192
S'#/\xf2"/\xf2\xd4?'
p2619
tp2620
Rp2621
ag189
(g192
S'\xcd\xcc\xcc\xcc\xcc\xcc\xd8?'
p2622
tp2623
Rp2624
ag189
(g192
S'X|\xc5W|\xc5\xd1?'
p2625
tp2626
Rp2627
ag189
(g192
S'VUUUUU\xe3?'
p2628
tp2629
Rp2630
ag189
(g192
S'X|\xc5W|\xc5\xd1?'
p2631
tp2632
Rp2633
ag189
(g192
S'\xcd\xcc\xcc\xcc\xcc\xcc\xec?'
p2634
tp2635
Rp2636
ag189
(g192
S'\xf5I\x9f\xf4I\x9f\xdc?'
p2637
tp2638
Rp2639
ag189
(g192
S'\x99\x99\x99\x99\x99\x99\xe9?'
p2640
tp2641
Rp2642
ag189
(g192
S'\x11\x11\x11\x11\x11\x11\xc1?'
p2643
tp2644
Rp2645
ag189
(g192
S'\xbd\xd5[\xbd\xd5[\xdd?'
p2646
tp2647
Rp2648
ag189
(g192
S'\x00\x00\x00\x00\x00\x00\x00\x00'
p2649
tp2650
Rp2651
ag189
(g192
S'VUUUUU\xd5?'
p2652
tp2653
Rp2654
ag189
(g192
S'ffffff\xc6?'
p2655
tp2656
Rp2657
ag189
(g192
S'\x00\x00\x00\x00\x00\x00\xf0?'
p2658
tp2659
Rp2660
ag189
(g192
S'\x9a\x99\x99\x99\x99\x99\xe9?'
p2661
tp2662
Rp2663
ag189
(g192
S'\x00\x00\x00\x00\x00\x00\x00\x00'
p2664
tp2665
Rp2666
ag189
(g192
S'\x9a\x99\x99\x99\x99\x99\xdd?'
p2667
tp2668
Rp2669
ag189
(g192
S'\n\xd7\xa3p=\n\xdf?'
p2670
tp2671
Rp2672
ag189
(g192
S'\x00\x00\x00\x00\x00\x00\x00\x00'
p2673
tp2674
Rp2675
ag189
(g192
S'\x00\x00\x00\x00\x00\x00\x00\x00'
p2676
tp2677
Rp2678
atp2679
ba(lp2680
g9
(g10
(dp2681
g12
g13
(g14
(I0
tp2682
g16
tp2683
Rp2684
(I1
(I13
tp2685
g23
I00
(lp2686
g27
ag28
ag29
ag30
ag31
ag32
ag33
ag34
ag35
ag36
ag37
ag38
ag39
atp2687
bsg41
Nstp2688
Rp2689
a(dp2690
S'0.14.1'
p2691
(dp2692
S'axes'
p2693
g8
sS'blocks'
p2694
(lp2695
(dp2696
S'mgr_locs'
p2697
c__builtin__
slice
p2698
(I0
I13
I1
tp2699
Rp2700
sS'values'
p2701
g62
sasstp2702
bb.