ccopy_reg
_reconstructor
p0
(cpandas.core.frame
DataFrame
p1
c__builtin__
object
p2
Ntp3
Rp4
g0
(cpandas.core.internals
BlockManager
p5
g2
Ntp6
Rp7
((lp8
cpandas.core.index
_new_Index
p9
(cpandas.core.index
Index
p10
(dp11
S'data'
p12
cnumpy.core.multiarray
_reconstruct
p13
(cnumpy
ndarray
p14
(I0
tp15
S'b'
p16
tp17
Rp18
(I1
(I13
tp19
cnumpy
dtype
p20
(S'O8'
p21
I0
I1
tp22
Rp23
(I3
S'|'
p24
NNNI-1
I-1
I63
tp25
bI00
(lp26
S'body'
p27
aS'score'
p28
aS'overallPol'
p29
aS'stdPol'
p30
aS'overallSub'
p31
aS'stdSub'
p32
aS'polRange'
p33
aS'subRange'
p34
aS'wordCount'
p35
aS'bigWords'
p36
aS'sentLen'
p37
aS'targetPol'
p38
aS'targetSub'
p39
atp40
bsS'name'
p41
Nstp42
Rp43
ag9
(cpandas.core.index
Int64Index
p44
(dp45
g12
g13
(g14
(I0
tp46
g16
tp47
Rp48
(I1
(I43
tp49
g20
(S'i8'
p50
I0
I1
tp51
Rp52
(I3
S'<'
p53
NNNI-1
I-1
I0
tp54
bI00
S'\x00\x00\x00\x00\x00\x00\x00\x00\x01\x00\x00\x00\x00\x00\x00\x00\x02\x00\x00\x00\x00\x00\x00\x00\x03\x00\x00\x00\x00\x00\x00\x00\x04\x00\x00\x00\x00\x00\x00\x00\x05\x00\x00\x00\x00\x00\x00\x00\x06\x00\x00\x00\x00\x00\x00\x00\x07\x00\x00\x00\x00\x00\x00\x00\x08\x00\x00\x00\x00\x00\x00\x00\t\x00\x00\x00\x00\x00\x00\x00\n\x00\x00\x00\x00\x00\x00\x00\x0b\x00\x00\x00\x00\x00\x00\x00\x0c\x00\x00\x00\x00\x00\x00\x00\r\x00\x00\x00\x00\x00\x00\x00\x0e\x00\x00\x00\x00\x00\x00\x00\x0f\x00\x00\x00\x00\x00\x00\x00\x10\x00\x00\x00\x00\x00\x00\x00\x11\x00\x00\x00\x00\x00\x00\x00\x12\x00\x00\x00\x00\x00\x00\x00\x13\x00\x00\x00\x00\x00\x00\x00\x14\x00\x00\x00\x00\x00\x00\x00\x15\x00\x00\x00\x00\x00\x00\x00\x16\x00\x00\x00\x00\x00\x00\x00\x17\x00\x00\x00\x00\x00\x00\x00\x18\x00\x00\x00\x00\x00\x00\x00\x19\x00\x00\x00\x00\x00\x00\x00\x1a\x00\x00\x00\x00\x00\x00\x00\x1b\x00\x00\x00\x00\x00\x00\x00\x1c\x00\x00\x00\x00\x00\x00\x00\x1d\x00\x00\x00\x00\x00\x00\x00\x1e\x00\x00\x00\x00\x00\x00\x00\x1f\x00\x00\x00\x00\x00\x00\x00 \x00\x00\x00\x00\x00\x00\x00!\x00\x00\x00\x00\x00\x00\x00"\x00\x00\x00\x00\x00\x00\x00#\x00\x00\x00\x00\x00\x00\x00$\x00\x00\x00\x00\x00\x00\x00%\x00\x00\x00\x00\x00\x00\x00&\x00\x00\x00\x00\x00\x00\x00\'\x00\x00\x00\x00\x00\x00\x00(\x00\x00\x00\x00\x00\x00\x00)\x00\x00\x00\x00\x00\x00\x00*\x00\x00\x00\x00\x00\x00\x00'
p55
tp56
bsg41
Nstp57
Rp58
a(lp59
g13
(g14
(I0
tp60
g16
tp61
Rp62
(I1
(I13
I43
tp63
g23
I00
(lp64
S"The application is called CCF (Control Centre of the Future) and provides a visualisation of real-time train movements.  This data is publicly available on the internet, so not a great risk from an information sensitivity perspective.  I believe it is an XWindows app, so that it can be opened on a variety of clients in the event of workstation failure.\n\nThe PC is most likely a display-only workstation with a local account.  The problem is that the workstation would need to be connected to the corporate WAN in order to display the information.  This in itself presents a security issue: the corporate network can be accessed from a PC via a local account for which the password has been displayed on national TV.  No, the Windows domain could not be accessed, but the network layer and other systems and devices on the network could.\n\nA hacker who has penetrated the network could then exploit this information by attempting to log into each and every IP address on the WAN using the name and password which was revealed on TV.    (Heck, a malicious cleaner could also do the same.  $20 paid to cleaner for every username/password sticky that has been successfully photographed during their nighttime cleaning shift.)  Eventually said hacker could get lucky.  The PC is clearly still running WinXP as can be determined by the colour scheme and the max/min/close icons on the upper right-hand corner of the application window.  WinXP exploits could be leveraged, or a key logger could be installed in effort to capture a valid Windows domain username/password at some future point.\n\nI could go on.  Lesson is don't stick login details onto your bloody computer.  This shouldn't be downplayed.  This computer is most likely attached to the corporate WAN and should be secure."
p65
aS"I had someone argue repeatedly that if you ever hit 300 GB you are obviously doing something illegal.  Yeah, they haven't seen my Steam and Origin libraries.  When my HD crashed I had to redownload all of them to play and that was over half right there just in games I play at least every week.  Add some NetFlix and regular browsing (and maybe a few big Windows updates) and I am way over 300 GB just on my PC.  Hell, with 5 people in my house we rarely are under 300-400 GB.  "
p66
aS'Free Windows, or advertising. Pick one.'
p67
aS'Anybody who thinks Linux is safe from viruses for any reason other than obscurity are kidding themselves. A bad Linux user can get a virus the same as a bad Windows user, the only difference is the amount out there for each system. '
p68
aS"Unfortunately I don't leave my home computer on 24/7 ready to receive data. I don't know how many other people do. I either sleep or turn off my computer (only when Windows updates come in) for when I'm out. Would a sleeping computer still be able to receive the stream?"
p69
aS'If you want an operating system with built in spyware you can\'t go wrong with the free Windows 10 "upgrade".'
p70
aS'As someone who is pretty tech-capable, I enjoyed my 2009 MacBook Pro simply because it was less buggy. I never had any actual issues with it, unlike every single Windows OS computer I have ever used, and the battery life was far superior (at the time at least) to the Windows OS laptops on the market. Now that my MacBook is finally slowly dying, I think I\'m going to switch to a Chromebook. But the reasons Macs are "easier" is just that they are less prone to issues that Windows OS computers have. And even though those issues are sometimes easily fixable if you know what you\'re doing, it\'s still easier to not have them in the first place.'
p71
aS'I hate when people assume that all Mac users don\'t know how computers work and buy them because they\'re "trendy". Is it a decent percentage of users? Yes. Overpriced? Yea probably. But I bought my Mac for content creation: Logic Pro, iMovie, etc. While there are better options than iTunes, it gets the job done and I think the presentation is great. Playlists are easy to make and my 400+ album collection is easy to navigate. Podcasts are pretty simple too. It certainly kills the terrible Windows Media Player that was bundled with my Windows 7 a little while back.'
p72
aS"The difference between an Android update and any other mobile OS update is that with Android it's all public, while the other OEMs keep their updates secret until they roll them out. It's not so much that Android takes longer to get updated, but that we can see the gap between when it's ready and when it actually happens, which is especially apparent with Nexus devices.\n\nAndroid on average has seen an update every 6-9 months, and it can take between a few weeks and 6 months for the most recent update to get pushed out to our phones (depending on what phone we have and how big the update is).\n\niOS has a yearly update that happens at the same time every year. So a few months before the update is ready, Apple stops working on it, locks down the code and starts the process of getting the update ready to roll out to all the devices. This process happens in private, so we can't see the months they spend going from code to an update ready to be pushed out. (Windows follows largely the same model, but they have a shorter, bumpier, history of updates).\n\nIf we look at how many updates have actually been pushed out to phones Android is way ahead in both number and speed. The difference is that we can see clearly the lag between when the code is ready and when the update is ready. We can also see the difference between how long it takes to get an update ready for different phones. With iOS, that all happens behind closed doors, so we just see the update pop up one day.\n\nThe Apple model makes us feel better, but the Android model gets more updates out faster. Given the number of articles that get written about Android updates, it seems that generally people, even people who are 'tech savvy, would prefer to feel better about their updates than to have more updates faster."
p73
aS'&gt; Rather than contributing to the project so that all Android customers would benefit, all of the handset manufacturers looked for ways to take advantage of free software while also differentiating their own build, contributing the bare minimum to the Android project.\n\nRight - "embrace and extend." Take the shared project, and then add stuff to drive a wedge between your variant and everyone else\'s.\n\nThis was a problem four years ago - today, it\'s become a catastrophe. This critically impacts developers, because their apps run wildly differently on half of the devices and don\'t run *at all* on the other half. (Also, trying to submit and update your app to a half-dozen different app stores must be a lot of fun.)\n\nWe can see the result of this sprawl by looking at Windows, which has struggled with similar problems for years. The upshot is that .NET is saddled with a bunch of half-implemented or previously-worked-but-now-broken APIs: old versions of DirectX, COM interfaces, replaced pen-and-touch layers, basic networking functionality that\'s been replaced with similarly-named equivalents, ActiveX cruft, Office interop libraries, etc. The only Windows functionality that devs can *rely* on as still being there in a few years is the absolute most basic stuff, which is why so many third-party apps have UIs that feel kind of primitive.\n\nAndroid has the same problem, but even worse. At most, Microsoft has had to support four concurrently-used versions of Windows to support (XP, Vista, 7, and 8) - Android currently has *eight*. How do you manage the development of an application to run well on eight different OS versions? Is that even possible? Or are app developers going to go the Linux route, and begin distributing their stuff as source code that users have to compile for their particular Android distro?\n\nThe only thing crazier than the magnitude of this problem is Google\'s complete apathy about it.\n'
p74
aS"In my experience (T-Mobile customer for years), when that happens most apps cease to work. I don't think they drop you to 3G, I think they drop you to EDGE. A lot of apps, even apps that would have worked on the original iPhone, refuse to work on a new iPhone with EDGE. Spotify, for example. I don't expect to be able to stream, but even searching won't work on EDGE. Siri won't work on EDGE. Facebook and Twitter won't work on EDGE. I can't get maps to load on EDGE, even though mapping worked on my old Windows Mobile 5 phone before my carrier and phone even supported 3G.\n\n"
p75
aS'Windows Zero.\n\nNext major update can be Windows Zero: Divided\n\nIt will make your CPU explode, so an ordinary MS update when it hits.'
p76
aS"I bet they'll release Windows Z, Windows X and XI, The final Windows, Windows 2: One Last Boot and Windows Next Generation before they bankrupt in year 3877."
p77
aS'"Oh God Oh god!",\n"What is it Terry?"\n\n"Windows pushed out another update and now none of our systems work with the new patch"\n\n"Well $&amp;(%"\n\nI know this because it happens every time chrome pushes an update and that\'s just a web browser :('
p78
aS"Big-time enterprise software move.  This effectively eliminates the need for Microsoft to support big .com/.gov types for 10 years after an  OS release.  They will either have to migrate platforms or pay (probably a larger sum) money to ensure their volume licensing agreement includes desktop OS upgrades.\n\nI can't imagine that a large amount of money gets made from Best-Buy, Newegg, or Amazon.com builder Windows plastic-wrapped OS purchases.  Most people probably never even upgrade their Windows-based computers due to the overall complexity.  Their computers simply just stagnate on the existing version.  Microsoft probably can't change that easily, so they make the investment real by charging a subscription.  And since the retail market can't be entirely written off, the only way I can imagine this working is ensuring that upgrades are seamless.  Probably through Windows Store."
p79
aS'Windows 10: Green hills\n\nWindows 10 service pack: Blue Sky With Clouds'
p80
aS'&gt;lol microsoft fanboy is mad\n\n-Guy who came into a post about Windows just to say "fuck Windows."'
p81
aS'It all sounds fine until 5 years from now you have to install clean from a Windows 10 DVD and wait another year for all the patches to download, especially as Microsoft has moved far away from allowing you to slipstream (eg Windows 8.1) or even releasing service pack bundles at all. \n\nThis is a dumb as shit idea. '
p82
aS"You're right. However, you can use the evaluation key to do the install, and then once inside Windows activate it with your 8.1 key. \n\nNot saying you're wrong, just telling you a work around! All of my keys are for 8 but I only ever use 8.1 installs because the in-place upgrade between the two is cumbersome and time consuming."
p83
aS'Right now it seems like MS is planning to switch from selling the OS to selling everything around the OS while giving the core platform out for free. Or, they expect enough sales forced by hardware upgrades with OEM installs plus enterprise subscriptions. Neither requires a paid subscription for the average user.\n\nEither way, there is finally a clear path to one Windows version everywhere. This will make Windows support cheaper for MS, but it can also mean substantial savings for anyone with a WTF software stack based on multiple Windows versions. Consider how much resources it takes globally to maintain all those randomly cobbled together setups. I would now like to welcome our new (old) OS overlords.'
p84
aS'*measure and compare ecosystems based on the number of apps* \n\n"sweet Jesus Windows is a ghost town!"\n\n---\n\n*losen app approval restrictions to allow greater number of apps* \n \n"sweet Jesus Windows is full of spam!"\n\n\nPick 1.'
p85
aS"There should be a YouTube channel of people installing old software on new computers.  I'm pretty boring, so I'd probably tune in to see how many updates a 1.0 AOL CD goes through before it's current.  :p\n\n**EDIT:**  [Upgrading Windows 1.01 to Windows 8](https://www.youtube.com/watch?v=Ep1MvNyHSWs)\n\nI actually watched it and it was as entertaining as I had expected.  :p"
p86
aS'The day Windows becomes a subscription service is the day that Linux Mint becomes my primary OS. '
p87
aS'So, in a nutshell, Windows becomes a rolling release OS.'
p88
aS'Yeah.. I\'ve worked in IT for decades,.. so I get why you\'d want different versions. (and realize they can\'t change it "overnight"),... but I\'m still a little disappointed (to be bluntly honest). I want to see more indications of the "New Microsoft"... not more habits of the "old Microsoft". (and yes, again.. I realize how hard it is to change course of a ship that big). \n\nEDIT,... additionally,. I wanted to add:.. For me, one of the biggest (if not **THE BIGGEST**) frustration that I\'ve always had with Microsoft Windows is the Versions/Licensing model. It\'s infuriatingly complex. (especially compared to Linux or OSX or other platforms that seem much more simplified). I think Microsoft would do themselves (and their clients) a huge favor if they simplified it as much as humanly possible. In a perfect world,.. there should be 1 version.. it should be called "Windows". During the install process it should either intelligently detect the capabilities of your hardware,.. OR.. allow you to customize/choose what options you want. \n\n'
p89
aS'For the lazy:\n   \n* Windows 10 home\n   \n* Windows 10 Mobile\n   \n* **Windows 10 Pro** &lt;- the one you\'ll "purchase".\n   \n* Windows 10 Entreprise\n   \n* Windows 10 Education\n   \n* Windows 10 Mobile Entreprise\n\n* Windows 10 IoT Core\n   \n* Windows 10 .net Jaguar\n   \n'
p90
aS'This only applies to people who pirated their Windows 7/8.1.\n\nPeople with legit copies still get the free upgrade.\n\nThey said it here\n\n&gt; Pirates just have to pay.\n\nAnd here\n\n&gt;Microsoft says that it\'s planning to run some "very attractive Windows 10 upgrade offers" that will allow people with pirated copies to move to an official version.'
p91
aS"&gt; This only applies to people who pirated their Windows 7/8.1.\n&gt; \n\nYeah the headline 'Microsoft backtracks on free Windows 10 update for pirates' gave us a clue"
p92
aS'Man, I *really* wish Windows Phone had the apps. The interface is great, the available hardware is great. Maybe in a year or two MS will have made some ground and I can switch over.'
p93
aS"If this is true... I'll totally switch back. Loved how fluid Windows Phone was compared to Android."
p94
aS'Even still, the HTC One M8 has two variants. One running Android and one running Windows. Exact same hardware, but the one running Windows has x1.33 the battery life or something like that '
p95
aS'I personally keep multiple Windows open with multiple tabs for research flows. \n\nEach window is one Avenue of research,  with usually multiple tabs for each source,  etc... '
p96
aS"Said the guy who uses explorer.exe on daily bases. You should be serving 4,500 life sentences for your atrocious crimes. Do you even realize how powerful Windows Explorer is? You can use it to **VISUALLY** extract data from devices from the network. VISUALLY ! No command line knowledge necessary ! It's made in such a way that even the dumbest criminal can use it. It's the ultimate tool for script kiddies. Let's be honest here Tommy... how often have you used explorer.exe ? You know me. I wouldn't tell anyone. Let's just be frank here. How often ?"
p97
aS"Worse than that, anyone who thinks they own the Windows OS that they paid for is a fool these days. Juuuuuuust try to stop Microsoft from changing your settings or downloading shit and see how long that lasts. Windows is Microsoft's little toy and the company merely lets you play with it. "
p98
aS'This is the best tl;dr I could make, [original](http://www.theguardian.com/technology/2015/may/22/malware-viruses-companies-preinstall) reduced by 86%. (I\'m a bot)\n*****\n&gt; Proprietary developers in the 1980s still had some ethical standards: they sincerely tried to make programs serve their users, even while denying users control over how they would be served.\n\n&gt; Windows snoops on users, shackles users and, on mobiles, censors apps; it also has a universal back door that allows Microsoft to remotely impose software changes.\n\n&gt; Amazon&amp;#039;s Kindle e-reader reports what page of what book is being read, plus all notes and underlining the user enters; it shackles the user against sharing or even freely giving away or lending the book, and has an Orwellian back door for erasing books.\n\n\n*****\n[**Extended Summary**](http://np.reddit.com/r/autotldr/comments/37bfq8/malware_is_not_only_about_viruses_companies/) | [FAQ](http://np.reddit.com/r/autotldr/comments/31b9fm/faq_autotldr_bot/ "Version 1.5, ~1199 tl;drs so far.") | [Theory](http://np.reddit.com/r/autotldr/comments/31bfht/theory_autotldr_concept/) | [Feedback](http://np.reddit.com/message/compose?to=%23autotldr "PMs and comment replies are read by the bot admin, constructive feedback is welcome.") | *Top* *five* *keywords*: **user**^#1 **malware**^#2 **software**^#3 **proprietary**^#4 **shackle**^#5\n\nPost found in [/r/technology](/r/technology/comments/37bdo8/malware_is_not_only_about_viruses_companies/), [/r/realtech](/r/realtech/comments/37beck/malware_is_not_only_about_viruses_companies/), [/r/linux](/r/linux/comments/36vnaa/malware_is_not_only_about_viruses_companies/), [/r/security](/r/security/comments/36ycp5/malware_is_not_only_about_viruses_companies/), [/r/privacy](/r/privacy/comments/36ycos/malware_is_not_only_about_viruses_companies/) and [/r/linux](/r/linux/comments/36z3pw/so_richard_stallman_invented_linux_in_this/).'
p99
aS"&gt; which is often called Linux\n\nHe doesn't call it Linux, but there are people out there that don't know the difference. Much like how a lot of people of my mother's generation call the chassis containing their motherboard, RAM and processor, the CPU. Technically it's incorrect, but it IS the Centralized Processing part of a computer if you see it as a closed box and the only other parts are the monitor and keyboard. Most Windows users wouldn't understand the difference between a Kernel and a full OS, because they haven't experimented with different ones."
p100
aS'Vanilla is a term used to describe software which has not been modified. https://www.wikiwand.com/en/Vanilla_software\n\nMost companies that sell computers modify the Windows operating system to include spyware, trial software, and other things which bog your system down. They do this because those companies pay them to include the software. While this allows for a drop in the price of store bought machines, it also bogs them down and causes them to run slowly.'
p101
aS'It astonishes me how bloated even simple things have become. I recently had to help my brother-in-law sort out the Bluetooth on his laptop and the new driver installation package from Atheros was 252MB! I remember when the entire Windows operating system was less than a tenth that size!'
p102
aS"Windows Phone is ceasing to be a thing when Windows 10 comes out, because Windows 10 is the same platform. Windows Phone isn't *dead*, it's fully merged with the desktop OS, which is the same OS that exists on the Surface devices and other tablet form-factor Windows devices. It's the same basic Windows as exists on special devices, and that will exist available for devices like the Arduino.\n\nWindows Phone users are not upset, since their phones are being updated to Windows 10. That will make it easier to create apps for all devices, including Android and iOS, which work well universally.\n\nIf you're genuinely interested on the state of Windows Phone and the future of the hardware devices, you should watch their most recent keynote from build."
p103
aS"&gt;Microsoft has said they are moving to Apple's release model.\n\nTheir business clientele won't go for that. It's why the UI is allowed to remain the same in Windows 10 and the underneath is supposed to change.\n\nSomething like that I've read somewhere.\n\n\n&gt; Ubuntu releases twice each year, most other Linux systems also release often.\n\nThose who like Linux are used to that.\n\nOS X is supposed to be for newbies and it's harder on newbies than Windows.\n\nYesterday I installed MSN Premium software on a new Windows 8.1 machine for a old friend, goes to show how people can not handle a lot of change.\n\nMicrosoft is a hell of a lot better at backwards compatibility than Apple or Linux."
p104
aS'Windows is a junk app..'
p105
aS"Macs save us money in the long run. Employees struggled with Window's 8. We installed classic shell on every computer to combat this. We don't have a full time IT person, we are too small for that so we rely on a part time IT person for help but that costs us 80/hr. \n\nIt comes down to productivity. Our employees are more productive on Macs because they are far easy to use than Win 8 for your avg user. Most of them already own ipads and iphones at home. They are able to learn Yosemite faster than Win 8. \n\nExample: We use high end brother printers. On a Mac it takes about 15 seconds to set it up. On windows 8 it takes 15 minutes and you need to reboot. Every few months the window's machines and printers stop talking to each other. Best way to fix it it to reinstall the software again. Never once has a Mac stopped talking to one of our printers. \n\nPreview on Yosemite is the real workhorse that rarely gets the attention it deserves. It's the swiss army knife of apps. No need for adobe. We can sign documents, annotate them, merge, delete pages, create pdf etc. There is nothing close for windows. Mac users in our company live in Preview...\n\nText messages right in Imessage is amazing for our company. Saves so much time and allows an employee to merge their phone with their computer. \n\nThe app store has everything you need to solve your problem. Safe, cheap, easy to use etc. Examples: Better Snap tool, copy clip and text wash. These are amazing apps that are dirt cheap but increase productively. 1password is simply the most amazing app. (you can use it on windows as well) We can't live without it. I have 47 logins stored in my vault just for work. It seamlessly works with all idevices. Windows app store is a mess!\n\nOur IT guy has many clients, from small to large. He tells me all the companies started by younger people are 100% Macs. He tells me companies such as the one I'm at slowly are adding Macs are people request them. One of our Mac employees left the company, people were fighting over who got his Mac mini. \n\nI'm sure there is a rebuttal to all of this but if Macs were 20% cheaper we would have bought way more of them. \n\nForgot to mention our IT guy who is extremely smart and semi famous in the tech world uses Mac's as well but he runs Linux on all of them. I have no idea why. "
p106
aS"The more Macs we have, the less IT support we need. With Macs we don't need minor config changes and if we do we can hit a button on the apple configurator. The Mac users also typically figure things out on their own vs Windows 8 requiring google to fix problems. \n\nCase in point, just look at how tiny the Mac sys prefs are compared to the control panel in Win8. Why the hell does win8 have a control panel with ~50 icons? Mac has ~24..\n\nIf google stripped win8 help results from search, Microsoft would be bankrupt. "
p107
aI1
aI1
aI0
aI1
aI1
aI0
aI1
aI1
aI0
aI1
aI1
aI1
aI1
aI1
aI1
aI1
aI1
aI1
aI1
aI1
aI1
aI1
aI0
aI1
aI1
aI1
aI1
aI1
aI1
aI1
aI1
aI1
aI1
aI0
aI0
aI1
aI1
aI1
aI1
aI0
aI0
aI0
aI0
aF0.028525641025641018
aF-0.06455026455026454
aF0.4
aF-0.17083333333333328
aF0.09583333333333333
aF-0.04999999999999999
aF0.09450549450549452
aF0.10847069597069597
aF0.08537108537108536
aF0.12480158730158732
aF0.32227272727272727
aF-0.0625
aF0.0
aF-0.3068181818181818
aF0.1478937728937729
aF-0.1
aF-0.5125
aF0.0513888888888889
aF-0.06785714285714287
aF0.017305194805194806
aF0.43125
aF0.1714876033057851
aF0.4
aF0.0
aF0.1253787878787879
aF-0.25
aF0.375
aF0.2
aF0.55
aF0.20999999999999996
aF0.125
aF0.0
aF-0.020000000000000007
aF-0.12291666666666667
aF0.30909090909090914
aF0.103125
aF-0.04722222222222224
aF-0.007575757575757574
aF0.09093406593406593
aF0.14448051948051946
aF0.0
aF0.27567479923458177
aF0.11944444444444445
acnumpy.core.multiarray
scalar
p108
(g20
(S'f8'
p109
I0
I1
tp110
Rp111
(I3
S'<'
p112
NNNI-1
I-1
I0
tp113
bS'\nO\x0b8u\xc8\xd3?'
p114
tp115
Rp116
ag108
(g111
S'V\x85\x88\xe3>\x8d\xc9?'
p117
tp118
Rp119
ag108
(g111
S'\x0bc\xffQ\x18\x1a\xd2?'
p120
tp121
Rp122
ag108
(g111
S'\x14-/\xae\x10S\xd8?'
p123
tp124
Rp125
ag108
(g111
S'\xe7\x98\x89k\xc2\xed\xd1?'
p126
tp127
Rp128
aI0
ag108
(g111
S'\xd82\x18C\x00X\xd0?'
p129
tp130
Rp131
ag108
(g111
S'u\xde\xe3\xb3\xe2\xbf\xd0?'
p132
tp133
Rp134
ag108
(g111
S'\xf0E\x96$\xc8>\xc9?'
p135
tp136
Rp137
ag108
(g111
S'\x93O\xccDu\x9e\xc4?'
p138
tp139
Rp140
ag108
(g111
S'\x1aidV[q\xcc?'
p141
tp142
Rp143
ag108
(g111
S'\xcd;\x7ff\x9e\xa0\xa6?'
p144
tp145
Rp146
ag108
(g111
S'\x00\x00\x00\x00\x00\x00\x00\x00'
p147
tp148
Rp149
ag108
(g111
S'\xe8\xf80\x1b\x93\xac\xc6?'
p150
tp151
Rp152
ag108
(g111
S'\xc0c\xf1\x88-/\xc1?'
p153
tp154
Rp155
aI0
aI0
ag108
(g111
S'\x878\xdf\x92)\x01\xd7?'
p156
tp157
Rp158
ag108
(g111
S'\x89\xac\xe3\xe5Y\x9b\xd8?'
p159
tp160
Rp161
ag108
(g111
S'\x08I&\x12\x12\xed\xcf?'
p162
tp163
Rp164
ag108
(g111
S'\xe2p\x05\xf4\x99\x03\xd0?'
p165
tp166
Rp167
ag108
(g111
S'\x1f\x02\xe2\x8c M\xd6?'
p168
tp169
Rp170
aI0
ag108
(g111
S'\x00\x00\x00\x00\x00\x00\x00\x00'
p171
tp172
Rp173
ag108
(g111
S'\xfc\xea\xc1e=m\xd7?'
p174
tp175
Rp176
ag108
(g111
S'\xcd;\x7ff\x9e\xa0\xc6?'
p177
tp178
Rp179
ag108
(g111
S'\xed\xfe\xa3\x85\xd3\xfb\xd1?'
p180
tp181
Rp182
ag108
(g111
S'\x0bc\xffQ\x18\x1a\xd2?'
p183
tp184
Rp185
ag108
(g111
S'\xad\x10O\xc3\x13\xe5\xd5?'
p186
tp187
Rp188
ag108
(g111
S'(\xe1\xc9\xc7\x83\xdd\xc9?'
p189
tp190
Rp191
ag108
(g111
S'\x1d3\x90E\xa7y\xb2?'
p192
tp193
Rp194
ag108
(g111
S'\x00\x00\x00\x00\x00\x00\x00\x00'
p195
tp196
Rp197
ag108
(g111
S'+R\xd54\x1eJ\xd2?'
p198
tp199
Rp200
ag108
(g111
S't\xe0d\xef\xa3f\xcc?'
p201
tp202
Rp203
ag108
(g111
S'\xd4\xee\xc70\xaa\x10\xd8?'
p204
tp205
Rp206
ag108
(g111
S'\xe4\x98\xc8\xf9Q\x9e\xc4?'
p207
tp208
Rp209
ag108
(g111
S'\x98\xde\x90\x07 \xbb\xc0?'
p210
tp211
Rp212
ag108
(g111
S'\xd5\xf4=;eH\xb8?'
p213
tp214
Rp215
ag108
(g111
S'\x038\xcd\x8a\x91q\xbe?'
p216
tp217
Rp218
ag108
(g111
S'\x1c\xf5\xdbx`\xcc\xc6?'
p219
tp220
Rp221
aI0
ag108
(g111
S'\xf6\x83\xd6U\x08\x08\xd1?'
p222
tp223
Rp224
ag108
(g111
S'V\xb9\x14\x01\xe0\xe2\xb9?'
p225
tp226
Rp227
aF0.3967948717948718
aF0.3643671143671144
aF0.8
aF0.5555555555555555
aF0.6666666666666666
aF0.8500000000000001
aF0.49010989010989015
aF0.6778388278388277
aF0.3808773058773058
aF0.5150793650793651
aF0.505909090909091
aF0.3333333333333333
aF0.35555555555555557
aF0.7272727272727273
aF0.45531135531135525
aF0.2
aF0.8
aF0.75
aF0.887142857142857
aF0.45073953823953833
aF0.5874999999999999
aF0.6140495867768595
aF0.5
aF0.0
aF0.6379585326953748
aF1.0
aF0.7
aF0.9
aF0.525
aF0.4600000000000001
aF0.1875
aF0.16
aF0.595
aF0.6333333333333334
aF0.43636363636363634
aF0.42812500000000003
aF0.3705555555555556
aF0.3506709956709957
aF0.2785714285714286
aF0.3077922077922078
aF0.0
aF0.5139216701173223
aF0.4611111111111111
ag108
(g111
S'\x17\xb6\x82f\x17v\xd4?'
p228
tp229
Rp230
ag108
(g111
S'\xcde\x84D\x93\xe4\xd6?'
p231
tp232
Rp233
ag108
(g111
S'\x0bc\xffQ\x18\x1a\xe2?'
p234
tp235
Rp236
ag108
(g111
S'\x04u\xef\xdd\x1a\x07\xc0?'
p237
tp238
Rp239
ag108
(g111
S'\\\xcfV\xcc\x073\xce?'
p240
tp241
Rp242
aI0
ag108
(g111
S'2>$1/\xc2\xca?'
p243
tp244
Rp245
ag108
(g111
S'\x9b\xce|\xa2\x811\xd8?'
p246
tp247
Rp248
ag108
(g111
S'\x1eu\xb1\x18\x1ax\xbc?'
p249
tp250
Rp251
ag108
(g111
S'\xf4|\xa1\xab\xe3\x13\xd1?'
p252
tp253
Rp254
ag108
(g111
S'-\x7f\xf7\x13Lh\xd2?'
p255
tp256
Rp257
ag108
(g111
S'f\xfa\xfe\xdd}+\xce?'
p258
tp259
Rp260
ag108
(g111
S'\x9f\xcdPP\x11\xa9\xdf?'
p261
tp262
Rp263
ag108
(g111
S'\xb5\xbe\xd1\xf0~\xdf\xda?'
p264
tp265
Rp266
ag108
(g111
S'\rQi\x0c>\x11\xcc?'
p267
tp268
Rp269
aI0
aI0
ag108
(g111
S"\x90\x14\xffz$'\xbb?"
p270
tp271
Rp272
ag108
(g111
S'V\x04\xd1\xea\xb7;\xcc?'
p273
tp274
Rp275
ag108
(g111
S'qC\xbe\x9b\x16\xbb\xc2?'
p276
tp277
Rp278
ag108
(g111
S'j!X\x86\xc3\xa2\xd6?'
p279
tp280
Rp281
ag108
(g111
S'\t\xe7\x01\xb3\x050\xd2?'
p282
tp283
Rp284
aI0
ag108
(g111
S'\x00\x00\x00\x00\x00\x00\x00\x00'
p285
tp286
Rp287
ag108
(g111
S'-k\xc5\x95\x12<\xd8?'
p288
tp289
Rp290
ag108
(g111
S'\xcd;\x7ff\x9e\xa0\xe6?'
p291
tp292
Rp293
ag108
(g111
S'\xaf\x00\xb5\xfd\xf0\xd5\xdb?'
p294
tp295
Rp296
ag108
(g111
S'\tc\xffQ\x18\x1a\xc2?'
p297
tp298
Rp299
ag108
(g111
S'i\xa2\x12\xcbV\xb8\xd4?'
p300
tp301
Rp302
ag108
(g111
S'p\x156\x1b+2\xc2?'
p303
tp304
Rp305
ag108
(g111
S'\xaaLX\xe8z\xb6\xbb?'
p306
tp307
Rp308
ag108
(g111
S'\x0bc\xffQ\x18\x1a\xc2?'
p309
tp310
Rp311
ag108
(g111
S'\xe9\xcdo)\xe0\x08\xdf?'
p312
tp313
Rp314
ag108
(g111
S'\x8f \xb0\te\x8d\xc3?'
p315
tp316
Rp317
ag108
(g111
S'\xd6\x80\x17\xc5\xe6\xf5\xd4?'
p318
tp319
Rp320
ag108
(g111
S'\xe2\xfc\x81\x1c\xc3\x83\xce?'
p321
tp322
Rp323
ag108
(g111
S'q\xb7\xb1\xb6{(\xcb?'
p324
tp325
Rp326
ag108
(g111
S'\xe1@+\xabq<w?'
p327
tp328
Rp329
ag108
(g111
S'\x02\x0eB\x16\xd87\xc4?'
p330
tp331
Rp332
ag108
(g111
S'+:q\x89S\xc1\xca?'
p333
tp334
Rp335
aI0
ag108
(g111
S'\x9f\xba\x92ZUl\xd2?'
p336
tp337
Rp338
ag108
(g111
S'\x03\xdc\xf3\xd4\x83\x8a\xd2?'
p339
tp340
Rp341
ag108
(g111
S'\xcd\xcc\xcc\xcc\xcc\xcc\xf8?'
p342
tp343
Rp344
ag108
(g111
S'\x9a\x99\x99\x99\x99\x99\xe1?'
p345
tp346
Rp347
ag108
(g111
S'\x9a\x99\x99\x99\x99\x99\xd9?'
p348
tp349
Rp350
ag108
(g111
S'233333\xe1?'
p351
tp352
Rp353
ag108
(g111
S'\xcd\xcc\xcc\xcc\xcc\xcc\xe4?'
p354
tp355
Rp356
aI0
ag108
(g111
S'\x89\x88\x88\x88\x88\x88\xe4?'
p357
tp358
Rp359
ag108
(g111
S'_\xf1\x15_\xf1\x95\xec?'
p360
tp361
Rp362
ag108
(g111
S'\x00\x00\x00\x00\x00\x00\xe8?'
p363
tp364
Rp365
ag108
(g111
S'\x9a\x99\x99\x99\x99\x99\xe1?'
p366
tp367
Rp368
ag108
(g111
S'\x00\x00\x00\x00\x00\x00\xe0?'
p369
tp370
Rp371
ag108
(g111
S'\x00\x00\x00\x00\x00\x00\xb0?'
p372
tp373
Rp374
ag108
(g111
S'\x00\x00\x00\x00\x00\x00\x00\x00'
p375
tp376
Rp377
ag108
(g111
S'\xa3\x8b.\xba\xe8\xa2\xd3?'
p378
tp379
Rp380
ag108
(g111
S'DDDDDD\xd4?'
p381
tp382
Rp383
aI0
aI0
ag108
(g111
S'DDDDDD\xe0?'
p384
tp385
Rp386
ag108
(g111
S'I\x92$I\x92$\xed?'
p387
tp388
Rp389
ag108
(g111
S'\xb8\x15\x8a[\xa1\xb8\xe3?'
p390
tp391
Rp392
ag108
(g111
S'\x00\x00\x00\x00\x00\x00\xdc?'
p393
tp394
Rp395
ag108
(g111
S'\x00\x00\x00\x00\x00\x00\xea?'
p396
tp397
Rp398
aI0
ag108
(g111
S'\x00\x00\x00\x00\x00\x00\x00\x00'
p399
tp400
Rp401
ag108
(g111
S'\xcd\xcc\xcc\xcc\xcc\xcc\xf4?'
p402
tp403
Rp404
ag108
(g111
S'\x00\x00\x00\x00\x00\x00\xd0?'
p405
tp406
Rp407
ag108
(g111
S'\x9a\x99\x99\x99\x99\x99\xe1?'
p408
tp409
Rp410
ag108
(g111
S'\x9a\x99\x99\x99\x99\x99\xd9?'
p411
tp412
Rp413
ag108
(g111
S'UUUUUU\xe5?'
p414
tp415
Rp416
ag108
(g111
S'ffffff\xd6?'
p417
tp418
Rp419
ag108
(g111
S'\x00\x00\x00\x00\x00\x00\xc0?'
p420
tp421
Rp422
ag108
(g111
S'\x00\x00\x00\x00\x00\x00\x00\x00'
p423
tp424
Rp425
ag108
(g111
S'\xcc\xcc\xcc\xcc\xcc\xcc\xf4?'
p426
tp427
Rp428
ag108
(g111
S'ffffff\xdc?'
p429
tp430
Rp431
ag108
(g111
S'\x89\x88\x88\x88\x88\x88\xf0?'
p432
tp433
Rp434
ag108
(g111
S'\xbc\xbb\xbb\xbb\xbb\xbb\xd5?'
p435
tp436
Rp437
ag108
(g111
S'&\xb4\x97\xd0^B\xd3?'
p438
tp439
Rp440
ag108
(g111
S'>\xf8\xe0\x83\x0f>\xc8?'
p441
tp442
Rp443
ag108
(g111
S'\xc30\x0c\xc30\x0c\xd3?'
p444
tp445
Rp446
ag108
(g111
S'333333\xe3?'
p447
tp448
Rp449
aI0
ag108
(g111
S'\x00\x00\x00\x00\x00\x80\xf3?'
p450
tp451
Rp452
ag108
(g111
S'\x11\x11\x11\x11\x11\x11\xd1?'
p453
tp454
Rp455
ag108
(g111
S'ffffff\xee?'
p456
tp457
Rp458
ag108
(g111
S'\xcd\xcc\xcc\xcc\xcc\xcc\xec?'
p459
tp460
Rp461
ag108
(g111
S'\x9a\x99\x99\x99\x99\x99\xe9?'
p462
tp463
Rp464
ag108
(g111
S'\xa8\xaa\xaa\xaa\xaa\xaa\xc6?'
p465
tp466
Rp467
ag108
(g111
S'\x00\x00\x00\x00\x00\x00\xe2?'
p468
tp469
Rp470
aI0
ag108
(g111
S'\x89\x88\x88\x88\x88\x88\xe0?'
p471
tp472
Rp473
ag108
(g111
S'\xcd\xcc\xcc\xcc\xcc\xcc\xec?'
p474
tp475
Rp476
ag108
(g111
S'\x00\x00\x00\x00\x00\x00\xd8?'
p477
tp478
Rp479
ag108
(g111
S'\x00\x00\x00\x00\x00\x00\xf0?'
p480
tp481
Rp482
ag108
(g111
S'\x00\x00\x00\x00\x00\x00\xe4?'
p483
tp484
Rp485
ag108
(g111
S'UUUUUU\xd5?'
p486
tp487
Rp488
ag108
(g111
S'\x00\x00\x00\x00\x00\x00\xf0?'
p489
tp490
Rp491
ag108
(g111
S'F\x17]t\xd1E\xe7?'
p492
tp493
Rp494
ag108
(g111
S'gfffff\xe2?'
p495
tp496
Rp497
aI0
aI0
ag108
(g111
S'433333\xc3?'
p498
tp499
Rp500
ag108
(g111
S'n\xdb\xb6m\xdb\xb6\xdd?'
p501
tp502
Rp503
ag108
(g111
S'\xf6<\xcf\xf3<\xcf\xdb?'
p504
tp505
Rp506
ag108
(g111
S'\xcd\xcc\xcc\xcc\xcc\xcc\xe4?'
p507
tp508
Rp509
ag108
(g111
S'\x87\xb5oX\xfb\x86\xe5?'
p510
tp511
Rp512
aI0
ag108
(g111
S'\x00\x00\x00\x00\x00\x00\x00\x00'
p513
tp514
Rp515
ag108
(g111
S'\x00\x00\x00\x00\x00\x00\xf0?'
p516
tp517
Rp518
ag108
(g111
S'\x00\x00\x00\x00\x00\x00\xf0?'
p519
tp520
Rp521
ag108
(g111
S'\x00\x00\x00\x00\x00\x00\xf0?'
p522
tp523
Rp524
ag108
(g111
S'\x98\x99\x99\x99\x99\x99\xc9?'
p525
tp526
Rp527
ag108
(g111
S'DDDDDD\xe4?'
p528
tp529
Rp530
ag108
(g111
S'\x9a\x99\x99\x99\x99\x99\xd1?'
p531
tp532
Rp533
ag108
(g111
S'\x00\x00\x00\x00\x00\x00\xc8?'
p534
tp535
Rp536
ag108
(g111
S'\x9a\x99\x99\x99\x99\x99\xc9?'
p537
tp538
Rp539
ag108
(g111
S'\x00\x00\x00\x00\x00\x00\xf0?'
p540
tp541
Rp542
ag108
(g111
S'433333\xd3?'
p543
tp544
Rp545
ag108
(g111
S'\xde\xdd\xdd\xdd\xdd\xdd\xed?'
p546
tp547
Rp548
ag108
(g111
S'\x99\x99\x99\x99\x99\x99\xe1?'
p549
tp550
Rp551
ag108
(g111
S'G\r\x7f\x9bb\xd4\xd8?'
p552
tp553
Rp554
ag108
(g111
S'\xa0r)\x97r)\x87?'
p555
tp556
Rp557
ag108
(g111
S'\x00\x00\x00\x00\x00\x00\xd6?'
p558
tp559
Rp560
ag108
(g111
S'\x00\x00\x00\x00\x00\x00\xe0?'
p561
tp562
Rp563
aI0
ag108
(g111
S'\x92$I\x92$I\xea?'
p564
tp565
Rp566
ag108
(g111
S'\x00\x00\x00\x00\x00\x00\xe8?'
p567
tp568
Rp569
aI299
aI94
aI6
aI43
aI53
aI21
aI122
aI102
aI335
aI317
aI116
aI24
aI29
aI45
aI138
aI12
aI19
aI59
aI62
aI118
aI36
aI64
aI17
aI10
aI175
aI36
aI60
aI28
aI35
aI18
aI33
aI27
aI99
aI53
aI190
aI102
aI74
aI49
aI132
aI128
aI5
aI446
aI99
aF0.10179640718562874
aF0.0
aF0.25
aF0.0
aF0.034482758620689655
aF0.0
aF0.014705882352941176
aF0.017543859649122806
aF0.0
aF0.09523809523809523
aF0.0
aF0.0
aF0.0
aF0.0
aF0.043010752688172046
aF0.0
aF0.0
aF0.0
aF0.0
aF0.04054054054054054
aF0.041666666666666664
aF0.1
aF0.1111111111111111
aF0.0
aF0.1
aF0.0
aF0.0
aF0.0
aF0.0
aF0.0
aF0.0
aF0.0
aF0.03636363636363636
aF0.030303030303030304
aF0.12903225806451613
aF0.07692307692307693
aF0.019230769230769232
aF0.06666666666666667
aF0.024691358024691357
aF0.015151515151515152
aF0.0
aF0.008583690987124463
aF0.018867924528301886
ag108
(g111
S'\x97\x96\x96\x96\x96\x961@'
p570
tp571
Rp572
ag108
(g111
S'\xcd\xcc\xcc\xcc\xcc\xcc2@'
p573
tp574
Rp575
ag108
(g111
S'\x00\x00\x00\x00\x00\x00\x08@'
p576
tp577
Rp578
ag108
(g111
S'\x00\x00\x00\x00\x00\x805@'
p579
tp580
Rp581
ag108
(g111
S'\x00\x00\x00\x00\x00\x80*@'
p582
tp583
Rp584
ag108
(g111
S'\x00\x00\x00\x00\x00\x005@'
p585
tp586
Rp587
ag108
(g111
S'ffffff8@'
p588
tp589
Rp590
ag108
(g111
S'ffffff$@'
p591
tp592
Rp593
ag108
(g111
S'O\xec\xc4N\xec\xc49@'
p594
tp595
Rp596
ag108
(g111
S'""""""5@'
p597
tp598
Rp599
ag108
(g111
S'\x00\x00\x00\x00\x00\x00-@'
p600
tp601
Rp602
ag108
(g111
S'\x00\x00\x00\x00\x00\x00(@'
p603
tp604
Rp605
ag108
(g111
S'\x00\x00\x00\x00\x00\x00=@'
p606
tp607
Rp608
ag108
(g111
S'\x00\x00\x00\x00\x00\x00.@'
p609
tp610
Rp611
ag108
(g111
S'\xab\xaa\xaa\xaa\xaa\xaa.@'
p612
tp613
Rp614
ag108
(g111
S'\x00\x00\x00\x00\x00\x00(@'
p615
tp616
Rp617
ag108
(g111
S'\x00\x00\x00\x00\x00\x003@'
p618
tp619
Rp620
ag108
(g111
S'\x00\x00\x00\x00\x00\x80=@'
p621
tp622
Rp623
ag108
(g111
S'\x00\x00\x00\x00\x00\x00/@'
p624
tp625
Rp626
ag108
(g111
S'\xb7m\xdb\xb6m\xdb0@'
p627
tp628
Rp629
ag108
(g111
S'\x00\x00\x00\x00\x00\x00(@'
p630
tp631
Rp632
ag108
(g111
S'\x00\x00\x00\x00\x00\x000@'
p633
tp634
Rp635
ag108
(g111
S'\x00\x00\x00\x00\x00\x001@'
p636
tp637
Rp638
ag108
(g111
S'\x00\x00\x00\x00\x00\x00$@'
p639
tp640
Rp641
ag108
(g111
S'\xc5N\xec\xc4N\xec*@'
p642
tp643
Rp644
ag108
(g111
S'\x00\x00\x00\x00\x00\x002@'
p645
tp646
Rp647
ag108
(g111
S'\x00\x00\x00\x00\x00\x00.@'
p648
tp649
Rp650
ag108
(g111
S'\x00\x00\x00\x00\x00\x00,@'
p651
tp652
Rp653
ag108
(g111
S"UUUUUU'@"
p654
tp655
Rp656
ag108
(g111
S'\x00\x00\x00\x00\x00\x00\x18@'
p657
tp658
Rp659
ag108
(g111
S'\x00\x00\x00\x00\x00\x00&@'
p660
tp661
Rp662
ag108
(g111
S'\x00\x00\x00\x00\x00\x00+@'
p663
tp664
Rp665
ag108
(g111
S"b'vb'v\x1e@"
p666
tp667
Rp668
ag108
(g111
S'\xab\xaa\xaa\xaa\xaa\xaa1@'
p669
tp670
Rp671
ag108
(g111
S'I\x92$I\x92$;@'
p672
tp673
Rp674
ag108
(g111
S'\x00\x00\x00\x00\x00\x809@'
p675
tp676
Rp677
ag108
(g111
S'\x00\x00\x00\x00\x00\x802@'
p678
tp679
Rp680
ag108
(g111
S'UUUUUU0@'
p681
tp682
Rp683
ag108
(g111
S'\x00\x00\x00\x00\x00\x006@'
p684
tp685
Rp686
ag108
(g111
S'\x1c\xc7q\x1c\xc7q,@'
p687
tp688
Rp689
ag108
(g111
S'\x00\x00\x00\x00\x00\x00\x14@'
p690
tp691
Rp692
ag108
(g111
S"\x94\xd7P^Cy'@"
p693
tp694
Rp695
ag108
(g111
S'\x92$I\x92$I,@'
p696
tp697
Rp698
ag108
(g111
S'\x00\x00\x00\x00\x00\x00\x00\x00'
p699
tp700
Rp701
ag108
(g111
S'\x11\x11\x11\x11\x11\x11\xb1\xbf'
p702
tp703
Rp704
ag108
(g111
S'\x9a\x99\x99\x99\x99\x99\xd9?'
p705
tp706
Rp707
ag108
(g111
S'efffff\xd6\xbf'
p708
tp709
Rp710
ag108
(g111
S'\x00\x00\x00\x00\x00\x00\x00\x00'
p711
tp712
Rp713
ag108
(g111
S'\x98\x99\x99\x99\x99\x99\xa9\xbf'
p714
tp715
Rp716
ag108
(g111
S'\x16_\xf1\x15_\xf1\xb5?'
p717
tp718
Rp719
ag108
(g111
S'I\x92$I\x92$\xcf\xbf'
p720
tp721
Rp722
ag108
(g111
S'\xdb\xb6m\xdb\xb6m\xbb?'
p723
tp724
Rp725
ag108
(g111
S'\x1e\xd4A\x1d\xd4A\xcd?'
p726
tp727
Rp728
ag108
(g111
S'\x9a\x99\x99\x99\x99\x99\xb9?'
p729
tp730
Rp731
ag108
(g111
S'\x00\x00\x00\x00\x00\x00\xb0\xbf'
p732
tp733
Rp734
ag108
(g111
S'\x00\x00\x00\x00\x00\x00\x00\x00'
p735
tp736
Rp737
ag108
(g111
S'\xa3\x8b.\xba\xe8\xa2\xd3\xbf'
p738
tp739
Rp740
ag108
(g111
S'\xdb\xb6m\xdb\xb6m\xcb?'
p741
tp742
Rp743
ag108
(g111
S'\x9a\x99\x99\x99\x99\x99\xb9\xbf'
p744
tp745
Rp746
ag108
(g111
S'ffffff\xe0\xbf'
p747
tp748
Rp749
ag108
(g111
S'EDDDDD\xcc?'
p750
tp751
Rp752
ag108
(g111
S'\x00\x00\x00\x00\x00\x00\x00\x00'
p753
tp754
Rp755
ag108
(g111
S'UUUUUU\xd1\xbf'
p756
tp757
Rp758
ag108
(g111
S'\xbc\xbb\xbb\xbb\xbb\xbb\xdb?'
p759
tp760
Rp761
ag108
(g111
S'ffffff\xd2?'
p762
tp763
Rp764
ag108
(g111
S'\x9a\x99\x99\x99\x99\x99\xd9?'
p765
tp766
Rp767
ag108
(g111
S'\x00\x00\x00\x00\x00\x00\x00\x00'
p768
tp769
Rp770
ag108
(g111
S'\x00\x00\x00\x00\x00\x00\xd0?'
p771
tp772
Rp773
ag108
(g111
S'\x00\x00\x00\x00\x00\x00\xc0\xbf'
p774
tp775
Rp776
ag108
(g111
S'\x9a\x99\x99\x99\x99\x99\xe1?'
p777
tp778
Rp779
ag108
(g111
S'\x9a\x99\x99\x99\x99\x99\xd9?'
p780
tp781
Rp782
ag108
(g111
S'\x9a\x99\x99\x99\x99\x99\xc9?'
p783
tp784
Rp785
ag108
(g111
S'ffffff\xd6?'
p786
tp787
Rp788
ag108
(g111
S'\x00\x00\x00\x00\x00\x00\xc0?'
p789
tp790
Rp791
ag108
(g111
S'\x00\x00\x00\x00\x00\x00\x00\x00'
p792
tp793
Rp794
ag108
(g111
S'333333\xd3?'
p795
tp796
Rp797
ag108
(g111
S'\x00\x00\x00\x00\x00\x00\xd6\xbf'
p798
tp799
Rp800
ag108
(g111
S'\x11\x11\x11\x11\x11\x11\xa1\xbf'
p801
tp802
Rp803
ag108
(g111
S'""""""\xd2?'
p804
tp805
Rp806
ag108
(g111
S'\x9d+\x0fH\xd6\xb9\xb2?'
p807
tp808
Rp809
ag108
(g111
S'\xaa\xaa\xaa\xaa\xaa\xaa\xba\xbf'
p810
tp811
Rp812
ag108
(g111
S'\xa8\x83:\xa8\x83:\xc8?'
p813
tp814
Rp815
ag108
(g111
S'A\x9e\x12\xe4)A\xbe?'
p816
tp817
Rp818
ag108
(g111
S'\x00\x00\x00\x00\x00\x00\x00\x00'
p819
tp820
Rp821
ag108
(g111
S'\x00\x00\x00\x00\x00\x00\xcc\xbf'
p822
tp823
Rp824
ag108
(g111
S'\xbc\xbb\xbb\xbb\xbb\xbb\xcb?'
p825
tp826
Rp827
ag108
(g111
S'\x00\x00\x00\x00\x00\x00\xe2?'
p828
tp829
Rp830
ag108
(g111
S'\x18z\xa1\x17z\xa1\xb7?'
p831
tp832
Rp833
ag108
(g111
S'\x9a\x99\x99\x99\x99\x99\xe9?'
p834
tp835
Rp836
ag108
(g111
S'\xaa\xaa\xaa\xaa\xaa\xaa\xe3?'
p837
tp838
Rp839
ag108
(g111
S'\x00\x00\x00\x00\x00\x00\xf0?'
p840
tp841
Rp842
ag108
(g111
S'433333\xeb?'
p843
tp844
Rp845
ag108
(g111
S'N\xa5!\xe7>\xbb\xe0?'
p846
tp847
Rp848
ag108
(g111
S'$I\x92$I\x92\xe0?'
p849
tp850
Rp851
ag108
(g111
S'n\xdb\xb6m\xdb\xb6\xd1?'
p852
tp853
Rp854
ag108
(g111
S'gfffff\xe2?'
p855
tp856
Rp857
ag108
(g111
S'\x9a\x99\x99\x99\x99\x99\xc9?'
p858
tp859
Rp860
ag108
(g111
S'UUUUUU\xd5?'
p861
tp862
Rp863
ag108
(g111
S'\x17l\xc1\x16l\xc1\xd6?'
p864
tp865
Rp866
ag108
(g111
S'F\x17]t\xd1E\xe7?'
p867
tp868
Rp869
ag108
(g111
S'\xdb\xb6m\xdb\xb6m\xdb?'
p870
tp871
Rp872
ag108
(g111
S'\x9a\x99\x99\x99\x99\x99\xc9?'
p873
tp874
Rp875
ag108
(g111
S'\x9a\x99\x99\x99\x99\x99\xe9?'
p876
tp877
Rp878
ag108
(g111
S'\x9a\x99\x99\x99\x99\x99\xe9?'
p879
tp880
Rp881
ag108
(g111
S'\x00\x00\x00\x00\x00\x00\xf0?'
p882
tp883
Rp884
ag108
(g111
S'\x00\x00\x00\x00\x00\x00\xe2?'
p885
tp886
Rp887
ag108
(g111
S'xwwwww\xe3?'
p888
tp889
Rp890
ag108
(g111
S'\x9a\x99\x99\x99\x99\x99\xe1?'
p891
tp892
Rp893
ag108
(g111
S'\x00\x00\x00\x00\x00\x00\xe0?'
p894
tp895
Rp896
ag108
(g111
S'\x00\x00\x00\x00\x00\x00\x00\x00'
p897
tp898
Rp899
ag108
(g111
S'\x00\x00\x00\x00\x00\x00\xf0?'
p900
tp901
Rp902
ag108
(g111
S'\x00\x00\x00\x00\x00\x00\xe0?'
p903
tp904
Rp905
ag108
(g111
S'\x00\x00\x00\x00\x00\x00\xe0?'
p906
tp907
Rp908
ag108
(g111
S'\x9a\x99\x99\x99\x99\x99\xe9?'
p909
tp910
Rp911
ag108
(g111
S'\x9a\x99\x99\x99\x99\x99\xc9?'
p912
tp913
Rp914
ag108
(g111
S'\xcd\xcc\xcc\xcc\xcc\xcc\xdc?'
p915
tp916
Rp917
ag108
(g111
S'\x00\x00\x00\x00\x00\x00\xc8?'
p918
tp919
Rp920
ag108
(g111
S'\x9a\x99\x99\x99\x99\x99\xc9?'
p921
tp922
Rp923
ag108
(g111
S'\x00\x00\x00\x00\x00\x00\xf0?'
p924
tp925
Rp926
ag108
(g111
S'\x00\x00\x00\x00\x00\x00\xe0?'
p927
tp928
Rp929
ag108
(g111
S'\x11\x11\x11\x11\x11\x11\xb1?'
p930
tp931
Rp932
ag108
(g111
S'\x99\x99\x99\x99\x99\x99\xe1?'
p933
tp934
Rp935
ag108
(g111
S'G\r\x7f\x9bb\xd4\xd8?'
p936
tp937
Rp938
ag108
(g111
S'""""""\xd6?'
p939
tp940
Rp941
ag108
(g111
S'\xb0\xf8\x8a\xaf\xf8\x8a\xd3?'
p942
tp943
Rp944
ag108
(g111
S'\xf2\x94 O\t\xf2\xd4?'
p945
tp946
Rp947
ag108
(g111
S'\x00\x00\x00\x00\x00\x00\x00\x00'
p948
tp949
Rp950
ag108
(g111
S'ffffff\xc6?'
p951
tp952
Rp953
ag108
(g111
S'\x00\x00\x00\x00\x00\x00\xe8?'
p954
tp955
Rp956
atp957
ba(lp958
g9
(g10
(dp959
g12
g13
(g14
(I0
tp960
g16
tp961
Rp962
(I1
(I13
tp963
g23
I00
(lp964
g27
ag28
ag29
ag30
ag31
ag32
ag33
ag34
ag35
ag36
ag37
ag38
ag39
atp965
bsg41
Nstp966
Rp967
a(dp968
S'0.14.1'
p969
(dp970
S'axes'
p971
g8
sS'blocks'
p972
(lp973
(dp974
S'mgr_locs'
p975
c__builtin__
slice
p976
(I0
I13
I1
tp977
Rp978
sS'values'
p979
g62
sasstp980
bb.